(dp0
(S'217.154.2.11'
p1
S'105.72.231.209'
p2
I16474
I17991
tp3
I3
s(S'171.230.84.161'
p4
S'75.56.111.5'
p5
I37739
I3900
tp6
I8
s(S'40.18.156.195'
p7
S'233.65.235.169'
p8
I52413
I50640
tp9
I5
s(S'95.52.219.242'
p10
S'51.70.178.59'
p11
I38625
I49866
tp12
I8
s(S'225.224.159.152'
p13
S'80.228.213.221'
p14
I42827
I61612
tp15
I4
s(S'179.202.204.193'
p16
S'213.158.217.109'
p17
I29599
I55901
tp18
I5
s(S'120.144.249.137'
p19
S'71.44.199.213'
p20
I46828
I50885
tp21
I10
s(S'72.70.18.63'
p22
S'228.150.190.106'
p23
I24178
I21523
tp24
I0
s(S'161.124.172.117'
p25
S'192.25.88.78'
p26
I16223
I34301
tp27
I2
s(S'123.226.220.254'
p28
S'21.255.249.86'
p29
I45846
I39510
tp30
I2
s(S'64.57.62.18'
p31
S'217.58.186.12'
p32
I46869
I12296
tp33
I3
s(S'27.3.12.73'
p34
S'124.78.63.222'
p35
I12293
I53144
tp36
I4
s(S'239.106.211.229'
p37
S'242.96.242.244'
p38
I37083
I42480
tp39
I3
s(S'205.118.131.180'
p40
S'69.154.90.182'
p41
I8519
I53941
tp42
I2
s(S'156.57.119.250'
p43
S'44.82.109.30'
p44
I28521
I47991
tp45
I2
s(S'112.151.125.143'
p46
S'34.117.35.95'
p47
I61290
I60394
tp48
I4
s(S'78.172.75.43'
p49
S'241.247.236.108'
p50
I60838
I38264
tp51
I3
s(S'28.106.244.74'
p52
S'235.198.17.152'
p53
I16741
I32501
tp54
I7
s(S'238.242.186.116'
p55
S'56.171.176.142'
p56
I54123
I60040
tp57
I3
s(S'157.235.177.50'
p58
S'150.34.151.219'
p59
I4556
I47581
tp60
I3
s(S'118.226.128.47'
p61
S'84.247.51.114'
p62
I36913
I62569
tp63
I5
s(S'174.218.234.81'
p64
S'170.103.33.164'
p65
I29738
I48511
tp66
I5
s(S'24.136.157.49'
p67
S'146.161.180.135'
p68
I7418
I16951
tp69
I7
s(S'145.21.126.158'
p70
S'91.47.23.92'
p71
I59843
I32105
tp72
I9
s(S'172.106.14.220'
p73
S'159.86.194.214'
p74
I52135
I40737
tp75
I3
s(S'247.193.38.57'
p76
S'183.179.0.30'
p77
I16302
I13332
tp78
I5
s(S'66.119.178.144'
p79
S'24.151.103.218'
p80
I40422
I49761
tp81
I4
s(S'132.162.122.142'
p82
S'68.201.235.102'
p83
I19130
I7799
tp84
I4
s(S'118.151.87.214'
p85
S'167.58.70.17'
p86
I50962
I25782
tp87
I5
s(S'160.155.156.170'
p88
S'103.166.138.48'
p89
I48191
I63638
tp90
I3
s(S'101.72.226.199'
p91
S'235.40.247.72'
p92
I34323
I38210
tp93
I5
s(S'121.186.176.248'
p94
S'72.197.10.244'
p95
I37023
I32731
tp96
I5
s(S'71.165.21.68'
p97
S'203.109.12.19'
p98
I56164
I16716
tp99
I4
s(S'80.139.37.8'
p100
S'125.242.78.178'
p101
I12540
I25083
tp102
I2
s(S'231.252.244.85'
p103
S'182.76.126.216'
p104
I37032
I58372
tp105
I8
s(S'168.16.108.161'
p106
S'191.175.237.86'
p107
I2262
I36173
tp108
I4
s(S'77.150.232.151'
p109
S'230.11.9.55'
p110
I5125
I13446
tp111
I2
s(S'33.178.45.64'
p112
S'224.173.132.207'
p113
I1982
I5750
tp114
I5
s(S'198.109.86.89'
p115
S'241.115.24.59'
p116
I63186
I36353
tp117
I7
s(S'148.87.30.187'
p118
S'247.189.100.64'
p119
I23190
I2721
tp120
I7
s(S'135.240.42.95'
p121
S'232.242.188.102'
p122
I39086
I16156
tp123
I8
s(S'208.123.139.83'
p124
S'24.60.53.93'
p125
I13826
I2968
tp126
I6
s(S'173.174.89.50'
p127
S'241.83.136.189'
p128
I40665
I8699
tp129
I8
s(S'82.253.48.209'
p130
S'44.106.175.156'
p131
I54939
I46493
tp132
I5
s(S'47.210.58.147'
p133
S'84.185.188.232'
p134
I41612
I40583
tp135
I4
s(S'248.233.179.228'
p136
S'234.135.79.83'
p137
I45457
I45214
tp138
I5
s(S'143.73.167.174'
p139
S'76.25.99.25'
p140
I56540
I5994
tp141
I6
s(S'117.20.201.24'
p142
S'150.40.183.35'
p143
I16823
I63832
tp144
I6
s(S'197.116.26.93'
p145
S'248.137.220.122'
p146
I25820
I32451
tp147
I8
s(S'207.38.220.163'
p148
S'34.71.120.210'
p149
I20471
I2638
tp150
I2
s(S'28.64.253.48'
p151
S'44.66.231.241'
p152
I55722
I43320
tp153
I6
s(S'146.25.99.132'
p154
S'15.70.141.71'
p155
I7225
I64670
tp156
I8
s(S'40.41.207.108'
p157
S'223.66.182.37'
p158
I17121
I3610
tp159
I3
s(S'249.104.145.26'
p160
S'114.165.47.154'
p161
I17998
I9443
tp162
I3
s(S'31.153.151.104'
p163
S'149.45.20.80'
p164
I48365
I32389
tp165
I2
s(S'60.164.211.17'
p166
S'109.191.134.168'
p167
I59848
I43006
tp168
I9437
s(S'76.40.22.146'
p169
S'25.77.181.98'
p170
I47438
I26792
tp171
I5
s(S'39.54.215.171'
p172
S'204.85.181.108'
p173
I9178
I27646
tp174
I4
s(S'182.36.110.143'
p175
S'104.38.64.74'
p176
I63092
I38208
tp177
I7
s(S'93.47.166.253'
p178
S'61.105.82.165'
p179
I5536
I25908
tp180
I4
s(S'243.167.174.66'
p181
S'135.201.219.60'
p182
I42768
I20801
tp183
I9499
s(S'173.134.139.78'
p184
S'65.75.151.64'
p185
I17276
I10537
tp186
I4
s(S'200.226.5.108'
p187
S'110.225.195.104'
p188
I59052
I43005
tp189
I2
s(S'192.92.218.166'
p190
S'212.94.83.87'
p191
I20983
I11689
tp192
I10
s(S'59.33.41.51'
p193
S'102.120.73.149'
p194
I26291
I5888
tp195
I5
s(S'214.237.193.183'
p196
S'98.146.43.33'
p197
I32763
I63942
tp198
I10
s(S'57.187.162.220'
p199
S'160.198.116.222'
p200
I37582
I45674
tp201
I3
s(S'42.18.24.238'
p202
S'177.242.96.141'
p203
I26591
I47322
tp204
I10
s(S'233.43.86.237'
p205
S'90.5.43.103'
p206
I3682
I22573
tp207
I6
s(S'146.248.165.2'
p208
S'204.129.214.36'
p209
I39193
I37164
tp210
I5
s(S'184.173.228.215'
p211
S'49.193.164.30'
p212
I3134
I25985
tp213
I5
s(S'137.18.203.109'
p214
S'207.157.151.70'
p215
I15498
I18263
tp216
I6
s(S'219.155.204.106'
p217
S'225.110.21.142'
p218
I44876
I65418
tp219
I6
s(S'174.97.52.52'
p220
S'14.62.43.201'
p221
I25807
I31545
tp222
I6
s(S'215.19.252.157'
p223
S'240.53.127.252'
p224
I33600
I51995
tp225
I3
s(S'127.151.41.219'
p226
S'242.126.133.38'
p227
I15328
I45050
tp228
I5
s(S'229.246.15.253'
p229
S'110.144.137.174'
p230
I33924
I63739
tp231
I5
s(S'178.225.167.123'
p232
S'132.156.98.27'
p233
I13633
I17269
tp234
I9523
s(S'77.138.83.232'
p235
S'236.91.186.3'
p236
I19564
I36488
tp237
I4
s(S'27.87.232.98'
p238
S'46.132.94.89'
p239
I44134
I32653
tp240
I3
s(S'69.214.250.123'
p241
S'87.167.207.30'
p242
I58251
I6513
tp243
I4
s(S'152.142.242.46'
p244
S'217.51.197.113'
p245
I46407
I1636
tp246
I2
s(S'181.2.221.79'
p247
S'94.103.220.216'
p248
I9955
I31436
tp249
I4
s(S'78.15.118.62'
p250
S'115.28.117.120'
p251
I24656
I30819
tp252
I2
s(S'253.48.90.181'
p253
S'82.93.210.247'
p254
I11772
I49695
tp255
I6
s(S'154.168.18.47'
p256
S'87.12.48.28'
p257
I10756
I65147
tp258
I2
s(S'178.198.6.122'
p259
S'21.19.167.185'
p260
I51717
I55147
tp261
I8
s(S'112.163.139.196'
p262
S'151.220.137.197'
p263
I33475
I32541
tp264
I9
s(S'119.13.215.44'
p265
S'108.207.230.120'
p266
I11362
I53712
tp267
I7
s(S'169.254.68.83'
p268
S'231.209.210.183'
p269
I8461
I52536
tp270
I5
s(S'221.42.69.180'
p271
S'110.97.210.243'
p272
I45208
I156
tp273
I7
s(S'65.87.206.24'
p274
S'106.168.77.116'
p275
I40865
I49254
tp276
I8
s(S'67.10.215.252'
p277
S'209.89.56.227'
p278
I24728
I20096
tp279
I4
s(S'250.169.103.147'
p280
S'230.22.86.190'
p281
I38234
I46104
tp282
I5
s(S'23.10.225.108'
p283
S'98.34.223.27'
p284
I39363
I21262
tp285
I4
s(S'159.181.166.255'
p286
S'137.142.136.252'
p287
I24911
I62307
tp288
I4
s(S'43.20.15.39'
p289
S'186.91.252.148'
p290
I36420
I59570
tp291
I3
s(S'112.16.52.255'
p292
S'236.120.8.98'
p293
I18562
I53980
tp294
I6
s(S'52.35.237.98'
p295
S'201.28.190.244'
p296
I46951
I57469
tp297
I4
s(S'13.231.30.42'
p298
S'78.181.153.198'
p299
I16196
I18665
tp300
I4
s(S'121.228.32.12'
p301
S'159.6.119.153'
p302
I13627
I52622
tp303
I7
s(S'10.249.67.156'
p304
S'222.43.180.238'
p305
I22926
I52434
tp306
I4
s(S'237.11.95.231'
p307
S'80.6.74.38'
p308
I56128
I17592
tp309
I6
s(S'139.81.39.8'
p310
S'140.240.216.76'
p311
I1149
I60771
tp312
I5
s(S'43.94.226.217'
p313
S'152.135.227.37'
p314
I50219
I64949
tp315
I6
s(S'118.244.142.134'
p316
S'53.148.240.179'
p317
I37401
I612
tp318
I5
s(S'97.101.201.146'
p319
S'195.156.232.230'
p320
I10889
I5429
tp321
I3
s(S'245.217.70.31'
p322
S'175.246.213.22'
p323
I2002
I54894
tp324
I5
s(S'29.225.155.56'
p325
S'34.108.10.9'
p326
I13986
I22695
tp327
I8
s(S'112.46.45.51'
p328
S'86.238.113.213'
p329
I23079
I37841
tp330
I2
s(S'188.46.66.172'
p331
S'214.210.120.126'
p332
I23887
I38394
tp333
I9477
s(S'45.41.45.195'
p334
S'130.38.183.117'
p335
I19426
I48509
tp336
I6
s(S'199.186.160.196'
p337
S'148.50.48.23'
p338
I51843
I4906
tp339
I6
s(S'52.98.60.112'
p340
S'49.0.145.67'
p341
I61054
I41386
tp342
I5
s(S'13.52.15.178'
p343
S'178.237.197.204'
p344
I6649
I35568
tp345
I6
s(S'224.71.165.107'
p346
S'223.140.148.193'
p347
I23702
I12542
tp348
I6
s(S'138.237.17.150'
p349
S'83.83.38.211'
p350
I1614
I46537
tp351
I5
s(S'194.135.182.98'
p352
S'21.72.233.50'
p353
I61358
I9833
tp354
I5
s(S'141.221.125.57'
p355
S'87.243.97.190'
p356
I29042
I21613
tp357
I6
s(S'230.137.117.102'
p358
S'137.245.160.192'
p359
I55808
I45374
tp360
I4
s(S'45.113.178.138'
p361
S'199.82.39.29'
p362
I59056
I53237
tp363
I4
s(S'219.133.109.227'
p364
S'70.182.64.148'
p365
I725
I24849
tp366
I4
s(S'208.80.58.12'
p367
S'218.77.46.67'
p368
I17
I39890
tp369
I5
s(S'96.182.238.9'
p370
S'122.178.18.171'
p371
I2393
I26917
tp372
I10
s(S'52.137.71.145'
p373
S'144.105.114.63'
p374
I46147
I57294
tp375
I5
s(S'92.191.189.213'
p376
S'162.136.98.183'
p377
I41871
I33577
tp378
I1
s(S'147.82.27.23'
p379
S'139.12.112.196'
p380
I45080
I51979
tp381
I8
s(S'58.118.223.115'
p382
S'228.143.106.145'
p383
I28086
I31591
tp384
I2
s(S'241.22.129.108'
p385
S'180.52.179.138'
p386
I4112
I42157
tp387
I2
s(S'71.11.148.65'
p388
S'77.105.245.145'
p389
I57400
I13127
tp390
I5
s(S'90.64.205.35'
p391
S'171.157.53.17'
p392
I25737
I17299
tp393
I9
s(S'114.251.30.38'
p394
S'17.14.214.103'
p395
I28743
I58319
tp396
I5
s(S'204.227.236.57'
p397
S'71.93.75.150'
p398
I18984
I7216
tp399
I9
s(S'205.178.226.192'
p400
S'225.215.138.104'
p401
I39526
I9674
tp402
I3
s(S'16.180.107.35'
p403
S'229.32.186.207'
p404
I47310
I36487
tp405
I8
s(S'208.245.142.234'
p406
S'208.145.4.55'
p407
I11250
I2490
tp408
I2
s(S'160.121.209.170'
p409
S'193.108.96.154'
p410
I25701
I40846
tp411
I4
s(S'228.215.165.241'
p412
S'13.194.86.98'
p413
I18307
I43254
tp414
I5
s(S'245.5.53.43'
p415
S'10.174.6.71'
p416
I30091
I55755
tp417
I5
s(S'198.211.246.132'
p418
S'56.65.185.149'
p419
I62136
I40773
tp420
I6
s(S'152.49.120.87'
p421
S'104.215.145.197'
p422
I43685
I8502
tp423
I4
s(S'230.46.37.33'
p424
S'98.251.175.157'
p425
I11953
I14527
tp426
I4
s(S'167.73.243.114'
p427
S'61.138.41.144'
p428
I8663
I33991
tp429
I4
s(S'216.114.118.224'
p430
S'35.233.242.78'
p431
I42762
I11652
tp432
I11
s(S'115.103.213.76'
p433
S'59.76.183.107'
p434
I53197
I39694
tp435
I7
s(S'144.99.135.93'
p436
S'62.90.84.222'
p437
I62052
I46953
tp438
I6
s(S'223.121.195.158'
p439
S'253.49.227.99'
p440
I56481
I52917
tp441
I5
s(S'191.241.34.210'
p442
S'161.57.226.188'
p443
I5296
I49864
tp444
I6
s(S'124.225.165.28'
p445
S'192.154.122.53'
p446
I42975
I36327
tp447
I6
s(S'242.56.245.252'
p448
S'54.150.13.175'
p449
I58041
I57300
tp450
I7
s(S'183.161.154.195'
p451
S'45.83.84.237'
p452
I58767
I29821
tp453
I3
s(S'48.225.92.125'
p454
S'46.255.175.176'
p455
I58446
I12401
tp456
I5
s(S'39.34.46.17'
p457
S'225.107.60.101'
p458
I13518
I46477
tp459
I3
s(S'137.92.214.98'
p460
S'213.63.238.76'
p461
I26022
I61015
tp462
I3
s(S'37.197.97.25'
p463
S'148.204.193.158'
p464
I36151
I33254
tp465
I3
s(S'117.60.219.215'
p466
S'170.160.255.66'
p467
I28042
I9652
tp468
I6
s(S'10.90.189.101'
p469
S'211.135.177.178'
p470
I59319
I50548
tp471
I5
s(S'122.44.190.85'
p472
S'217.254.247.73'
p473
I31458
I1819
tp474
I7
s(S'142.85.5.85'
p475
S'44.114.15.243'
p476
I37309
I46878
tp477
I7
s(S'47.7.215.45'
p478
S'36.207.8.151'
p479
I24140
I55894
tp480
I6
s(S'123.70.153.70'
p481
S'248.146.43.181'
p482
I23484
I44451
tp483
I4
s(S'78.150.97.206'
p484
S'188.153.42.169'
p485
I10225
I17999
tp486
I6
s(S'28.251.235.107'
p487
S'29.58.202.179'
p488
I30184
I48253
tp489
I3
s(S'118.178.97.165'
p490
S'47.152.199.166'
p491
I43034
I37935
tp492
I4
s(S'118.177.127.215'
p493
S'50.25.134.172'
p494
I36564
I55444
tp495
I9499
s(S'73.99.75.209'
p496
S'101.67.27.40'
p497
I42040
I43333
tp498
I2
s(S'135.11.158.69'
p499
S'34.87.240.192'
p500
I33461
I23444
tp501
I3
s(S'230.13.115.171'
p502
S'164.34.109.92'
p503
I56493
I22782
tp504
I5
s(S'66.242.95.153'
p505
S'238.100.28.70'
p506
I38482
I36175
tp507
I5
s(S'100.216.35.189'
p508
S'57.184.43.250'
p509
I54662
I12732
tp510
I6
s(S'78.52.188.64'
p511
S'238.120.166.178'
p512
I17601
I7772
tp513
I9
s(S'112.19.130.239'
p514
S'117.160.11.154'
p515
I43455
I58808
tp516
I4
s(S'35.225.132.14'
p517
S'214.79.82.106'
p518
I53870
I49245
tp519
I5
s(S'225.35.184.67'
p520
S'87.7.46.46'
p521
I35425
I12407
tp522
I3
s(S'23.56.124.253'
p523
S'241.58.16.165'
p524
I34665
I22409
tp525
I6
s(S'152.243.108.54'
p526
S'63.5.15.242'
p527
I27866
I31141
tp528
I9
s(S'48.63.153.189'
p529
S'37.85.18.187'
p530
I7180
I15767
tp531
I5
s(S'52.82.182.29'
p532
S'124.16.217.244'
p533
I53090
I28623
tp534
I9
s(S'137.188.101.242'
p535
S'220.126.23.52'
p536
I50493
I52482
tp537
I5
s(S'13.74.135.228'
p538
S'103.95.149.72'
p539
I61334
I59253
tp540
I1
s(S'156.122.44.176'
p541
S'153.101.87.233'
p542
I65002
I20142
tp543
I1
s(S'40.20.74.101'
p544
S'92.124.178.137'
p545
I7111
I42483
tp546
I4
s(S'127.34.32.231'
p547
S'223.44.232.76'
p548
I37565
I34462
tp549
I8
s(S'187.113.173.32'
p550
S'42.200.27.198'
p551
I58139
I23132
tp552
I1
s(S'18.121.215.92'
p553
S'55.54.173.6'
p554
I61335
I2548
tp555
I3
s(S'93.33.172.64'
p556
S'123.124.107.66'
p557
I36074
I647
tp558
I5
s(S'77.31.140.6'
p559
S'19.0.30.105'
p560
I44229
I56728
tp561
I4
s(S'20.246.59.12'
p562
S'12.62.204.42'
p563
I20414
I27728
tp564
I4
s(S'102.254.43.136'
p565
S'33.230.1.236'
p566
I23255
I38934
tp567
I5
s(S'75.209.23.191'
p568
S'30.143.209.210'
p569
I13660
I9185
tp570
I6
s(S'48.134.181.137'
p571
S'53.214.141.7'
p572
I11796
I61498
tp573
I7
s(S'140.93.83.78'
p574
S'216.125.231.13'
p575
I16369
I52574
tp576
I7
s(S'175.158.161.247'
p577
S'163.159.210.6'
p578
I57039
I59191
tp579
I7
s(S'17.54.33.52'
p580
S'66.86.128.31'
p581
I14375
I40046
tp582
I7
s(S'218.143.78.135'
p583
S'92.215.145.87'
p584
I10544
I44558
tp585
I7
s(S'245.174.124.142'
p586
S'93.176.118.177'
p587
I17282
I59302
tp588
I5
s(S'133.85.203.63'
p589
S'37.144.224.205'
p590
I4825
I21238
tp591
I4
s(S'19.162.22.1'
p592
S'11.85.197.110'
p593
I18662
I55261
tp594
I8
s(S'37.142.246.36'
p595
S'186.166.28.59'
p596
I51294
I52031
tp597
I6
s(S'198.40.121.63'
p598
S'205.63.134.250'
p599
I29172
I18248
tp600
I4
s(S'80.125.241.46'
p601
S'166.185.249.76'
p602
I50227
I34497
tp603
I7
s(S'191.77.139.186'
p604
S'163.42.120.124'
p605
I29946
I26352
tp606
I7
s(S'124.0.31.233'
p607
S'118.213.246.172'
p608
I19368
I56964
tp609
I5
s(S'133.1.110.39'
p610
S'189.177.244.236'
p611
I42436
I16917
tp612
I3
s(S'212.238.203.33'
p613
S'145.235.219.93'
p614
I895
I45545
tp615
I4
s(S'93.71.175.206'
p616
S'235.182.57.133'
p617
I65184
I45418
tp618
I3
s(S'196.147.41.49'
p619
S'45.123.12.168'
p620
I20406
I13885
tp621
I6
s(S'38.92.77.241'
p622
S'127.195.132.209'
p623
I52299
I25293
tp624
I5
s(S'177.104.239.17'
p625
S'30.207.63.22'
p626
I36108
I14274
tp627
I3
s(S'23.227.198.117'
p628
S'137.181.184.210'
p629
I16020
I882
tp630
I5
s(S'160.188.1.3'
p631
S'71.67.109.23'
p632
I7465
I21642
tp633
I7
s(S'58.72.39.118'
p634
S'84.33.32.55'
p635
I9683
I21006
tp636
I5
s(S'73.139.221.121'
p637
S'232.146.222.91'
p638
I21774
I21370
tp639
I7
s(S'43.186.12.209'
p640
S'100.181.163.53'
p641
I59770
I29249
tp642
I8
s(S'211.61.163.236'
p643
S'141.97.57.155'
p644
I32201
I9055
tp645
I2
s(S'145.197.146.221'
p646
S'104.43.177.152'
p647
I57486
I21360
tp648
I4
s(S'23.89.129.192'
p649
S'159.179.184.196'
p650
I1571
I38837
tp651
I6
s(S'160.63.86.237'
p652
S'215.3.170.142'
p653
I50812
I37380
tp654
I9
s(S'47.207.34.115'
p655
S'163.183.238.240'
p656
I45699
I40325
tp657
I8
s(S'202.222.13.80'
p658
S'208.37.92.190'
p659
I30327
I27764
tp660
I4
s(S'245.122.103.190'
p661
S'56.200.6.12'
p662
I45452
I28680
tp663
I5
s(S'164.80.125.85'
p664
S'48.134.79.196'
p665
I65185
I54135
tp666
I7
s(S'226.29.173.222'
p667
S'186.82.24.8'
p668
I10733
I23189
tp669
I3
s(S'138.132.240.153'
p670
S'96.68.228.177'
p671
I30338
I41848
tp672
I3
s(S'37.229.196.161'
p673
S'231.69.141.174'
p674
I62549
I21830
tp675
I5
s(S'143.235.119.111'
p676
S'156.88.10.122'
p677
I19817
I24750
tp678
I6
s(S'119.92.110.28'
p679
S'240.129.179.154'
p680
I48560
I58683
tp681
I8
s(S'107.55.254.159'
p682
S'202.75.111.130'
p683
I15482
I36532
tp684
I5
s(S'19.181.70.29'
p685
S'138.56.180.61'
p686
I2252
I53006
tp687
I6
s(S'160.250.42.240'
p688
S'203.112.97.229'
p689
I41788
I63132
tp690
I7
s(S'52.8.184.28'
p691
S'212.177.115.76'
p692
I4700
I39376
tp693
I5
s(S'148.97.91.90'
p694
S'210.215.28.0'
p695
I21539
I30049
tp696
I5
s(S'128.171.233.39'
p697
S'94.82.239.131'
p698
I55701
I14264
tp699
I7
s(S'120.50.187.141'
p700
S'197.3.9.195'
p701
I9485
I11139
tp702
I5
s(S'86.101.68.128'
p703
S'131.221.107.232'
p704
I11359
I63179
tp705
I9
s(S'125.237.45.69'
p706
S'66.39.249.43'
p707
I63017
I32940
tp708
I3
s(S'35.12.222.206'
p709
S'101.17.86.118'
p710
I60172
I24004
tp711
I5
s(S'236.48.159.22'
p712
S'196.11.183.54'
p713
I27238
I16500
tp714
I6
s(S'56.75.145.5'
p715
S'20.132.220.31'
p716
I64831
I63757
tp717
I4
s(S'121.135.68.185'
p718
S'64.227.221.1'
p719
I29350
I24015
tp720
I7
s(S'41.11.18.207'
p721
S'112.56.8.19'
p722
I32425
I14134
tp723
I4
s(S'226.129.22.99'
p724
S'20.187.91.138'
p725
I11632
I39571
tp726
I1
s(S'200.96.17.245'
p727
S'198.125.31.167'
p728
I33770
I37597
tp729
I7
s(S'231.58.195.49'
p730
S'133.177.144.47'
p731
I44489
I21434
tp732
I5
s(S'43.147.65.50'
p733
S'67.56.234.144'
p734
I37901
I34183
tp735
I4
s(S'248.191.4.134'
p736
S'40.220.183.48'
p737
I62328
I55446
tp738
I3
s(S'34.16.0.196'
p739
S'126.141.94.79'
p740
I26945
I21065
tp741
I7
s(S'20.137.250.242'
p742
S'106.116.65.223'
p743
I49540
I37685
tp744
I8
s(S'195.180.156.82'
p745
S'164.186.70.153'
p746
I56842
I33309
tp747
I4
s(S'246.50.62.14'
p748
S'35.14.255.227'
p749
I52110
I9494
tp750
I2
s(S'136.210.156.89'
p751
S'124.31.122.103'
p752
I19560
I51626
tp753
I4
s(S'157.162.26.99'
p754
S'94.128.125.103'
p755
I36949
I26089
tp756
I4
s(S'119.28.89.37'
p757
S'43.102.190.225'
p758
I28481
I41408
tp759
I5
s(S'133.32.51.108'
p760
S'41.76.202.71'
p761
I51976
I32112
tp762
I7
s(S'26.82.115.222'
p763
S'65.147.131.73'
p764
I760
I14139
tp765
I3
s(S'246.191.38.147'
p766
S'161.175.1.66'
p767
I47746
I55867
tp768
I9398
s(S'237.103.168.153'
p769
S'207.167.20.5'
p770
I46765
I13337
tp771
I4
s(S'44.11.219.123'
p772
S'19.79.96.166'
p773
I3097
I37974
tp774
I6
s(S'69.206.248.127'
p775
S'178.30.227.108'
p776
I10375
I39400
tp777
I6
s(S'185.96.115.83'
p778
S'239.57.249.18'
p779
I62694
I15600
tp780
I3
s(S'249.77.148.252'
p781
S'62.129.140.97'
p782
I53411
I17519
tp783
I4
s(S'55.223.175.26'
p784
S'164.201.78.173'
p785
I19674
I16191
tp786
I5
s(S'235.221.74.247'
p787
S'174.147.126.63'
p788
I11566
I36612
tp789
I2
s(S'223.194.187.252'
p790
S'247.172.199.54'
p791
I35994
I19522
tp792
I3
s(S'138.137.153.7'
p793
S'164.245.226.46'
p794
I63646
I28737
tp795
I3
s(S'195.216.24.243'
p796
S'104.255.36.141'
p797
I38309
I45829
tp798
I5
s(S'211.199.180.35'
p799
S'68.229.199.154'
p800
I52275
I33595
tp801
I9
s(S'172.203.235.220'
p802
S'102.58.63.181'
p803
I10281
I59736
tp804
I6
s(S'73.82.86.243'
p805
S'176.179.204.105'
p806
I28637
I57610
tp807
I6
s(S'43.191.91.140'
p808
S'186.181.32.252'
p809
I37019
I7488
tp810
I5
s(S'216.39.167.225'
p811
S'137.126.204.179'
p812
I48052
I43617
tp813
I2
s(S'51.41.150.180'
p814
S'122.38.12.190'
p815
I34821
I54000
tp816
I8
s(S'41.68.66.161'
p817
S'43.21.109.223'
p818
I41951
I60690
tp819
I6
s(S'19.173.108.108'
p820
S'248.87.227.14'
p821
I12225
I49880
tp822
I0
s(S'247.251.19.206'
p823
S'232.91.84.253'
p824
I7375
I43385
tp825
I5
s(S'212.136.119.15'
p826
S'227.40.15.127'
p827
I14823
I49619
tp828
I3
s(S'109.120.85.193'
p829
S'21.210.161.122'
p830
I22827
I12400
tp831
I3
s(S'52.133.119.87'
p832
S'75.232.162.163'
p833
I16186
I37891
tp834
I5
s(S'12.218.124.6'
p835
S'230.39.60.212'
p836
I8211
I27873
tp837
I3
s(S'65.108.175.40'
p838
S'56.0.60.132'
p839
I5221
I37729
tp840
I5
s(S'114.148.48.213'
p841
S'208.186.116.163'
p842
I25643
I44280
tp843
I2
s(S'213.42.191.207'
p844
S'68.250.153.134'
p845
I45073
I46280
tp846
I4
s(S'115.228.5.186'
p847
S'116.67.116.114'
p848
I31748
I52397
tp849
I3
s(S'117.85.99.148'
p850
S'151.139.50.200'
p851
I62648
I9154
tp852
I8
s(S'204.213.48.213'
p853
S'88.0.27.191'
p854
I56188
I56191
tp855
I7
s(S'225.15.180.236'
p856
S'83.21.100.18'
p857
I60312
I50394
tp858
I9
s(S'103.68.111.26'
p859
S'110.47.128.73'
p860
I62079
I1846
tp861
I2
s(S'149.20.7.190'
p862
S'52.108.183.15'
p863
I46698
I15521
tp864
I6
s(S'17.231.152.193'
p865
S'36.176.17.141'
p866
I7779
I21215
tp867
I7
s(S'87.75.174.108'
p868
S'210.145.181.168'
p869
I13549
I47610
tp870
I8
s(S'76.161.221.173'
p871
S'20.190.166.212'
p872
I16187
I5340
tp873
I3
s(S'119.202.41.188'
p874
S'15.251.198.91'
p875
I16072
I11581
tp876
I4
s(S'50.83.224.200'
p877
S'165.12.156.67'
p878
I25645
I53349
tp879
I5
s(S'183.212.121.136'
p880
S'117.11.47.118'
p881
I22632
I58444
tp882
I5
s(S'67.242.208.90'
p883
S'217.105.18.141'
p884
I64009
I16983
tp885
I10
s(S'146.226.3.226'
p886
S'78.97.149.153'
p887
I14864
I61611
tp888
I1
s(S'214.249.231.5'
p889
S'49.227.144.216'
p890
I51204
I41903
tp891
I6
s(S'239.188.249.241'
p892
S'110.41.70.247'
p893
I55992
I776
tp894
I13
s(S'177.23.53.194'
p895
S'156.165.250.86'
p896
I62226
I52836
tp897
I4
s(S'82.192.222.0'
p898
S'37.209.198.114'
p899
I40071
I18414
tp900
I4
s(S'144.236.127.93'
p901
S'109.134.142.252'
p902
I14049
I19644
tp903
I4
s(S'129.192.115.107'
p904
S'154.237.9.178'
p905
I14357
I35206
tp906
I3
s(S'104.104.57.201'
p907
S'54.210.202.201'
p908
I51237
I57123
tp909
I3
s(S'51.107.209.164'
p910
S'196.144.143.183'
p911
I10020
I14160
tp912
I3
s(S'45.64.12.39'
p913
S'130.74.126.245'
p914
I38784
I11400
tp915
I8
s(S'208.63.152.132'
p916
S'227.59.97.157'
p917
I27186
I18701
tp918
I7
s(S'154.106.198.172'
p919
S'52.180.186.154'
p920
I44428
I32679
tp921
I2
s(S'152.18.84.113'
p922
S'143.57.223.53'
p923
I30622
I27625
tp924
I4
s(S'76.49.121.40'
p925
S'252.211.224.204'
p926
I19567
I36224
tp927
I8
s(S'64.199.56.102'
p928
S'199.136.54.238'
p929
I61385
I47250
tp930
I7
s(S'57.11.47.250'
p931
S'132.24.6.65'
p932
I19139
I28429
tp933
I5
s(S'180.31.205.247'
p934
S'39.82.5.131'
p935
I30558
I60607
tp936
I7
s(S'84.249.184.64'
p937
S'193.15.232.72'
p938
I40131
I63614
tp939
I5
s(S'100.53.105.213'
p940
S'201.0.62.14'
p941
I48769
I36129
tp942
I3
s(S'139.137.21.224'
p943
S'83.163.37.225'
p944
I26447
I1592
tp945
I8
s(S'111.226.164.243'
p946
S'199.159.0.94'
p947
I687
I61638
tp948
I11
s(S'129.211.163.175'
p949
S'61.101.150.81'
p950
I48671
I19215
tp951
I5
s(S'78.122.156.224'
p952
S'135.141.162.53'
p953
I38970
I6949
tp954
I7
s(S'10.156.220.45'
p955
S'54.5.216.221'
p956
I10858
I15384
tp957
I6
s(S'81.45.96.62'
p958
S'187.111.196.107'
p959
I45115
I54438
tp960
I2
s(S'51.136.70.225'
p961
S'219.23.198.98'
p962
I13316
I53008
tp963
I3
s(S'122.217.3.185'
p964
S'50.224.73.77'
p965
I60229
I3874
tp966
I4
s(S'81.91.249.6'
p967
S'167.252.184.189'
p968
I34502
I64579
tp969
I4
s(S'82.5.216.11'
p970
S'72.95.217.238'
p971
I64163
I41624
tp972
I9
s(S'164.51.122.229'
p973
S'238.136.7.144'
p974
I60699
I50476
tp975
I4
s(S'54.7.56.244'
p976
S'211.18.143.156'
p977
I33397
I54867
tp978
I5
s(S'153.57.199.183'
p979
S'195.27.89.97'
p980
I51937
I28622
tp981
I7
s(S'31.88.151.103'
p982
S'96.211.229.149'
p983
I54386
I32395
tp984
I3
s(S'181.158.94.227'
p985
S'76.51.160.68'
p986
I35358
I15311
tp987
I3
s(S'243.145.129.29'
p988
S'31.89.254.233'
p989
I61215
I48298
tp990
I6
s(S'138.59.160.135'
p991
S'111.119.233.190'
p992
I21146
I5014
tp993
I3
s(S'226.177.47.137'
p994
S'136.134.123.16'
p995
I44165
I41374
tp996
I3
s(S'123.17.35.27'
p997
S'64.22.170.186'
p998
I21906
I55191
tp999
I2
s(S'77.93.203.52'
p1000
S'170.83.40.209'
p1001
I26745
I5901
tp1002
I6
s(S'235.222.122.231'
p1003
S'22.216.149.173'
p1004
I61343
I8937
tp1005
I7
s(S'15.204.112.32'
p1006
S'19.200.223.77'
p1007
I11940
I35318
tp1008
I3
s(S'73.250.182.236'
p1009
S'26.103.191.21'
p1010
I17735
I26281
tp1011
I8
s(S'121.94.71.46'
p1012
S'19.236.169.38'
p1013
I64892
I13005
tp1014
I4
s(S'74.66.116.23'
p1015
S'197.82.36.31'
p1016
I10983
I59941
tp1017
I4
s(S'23.135.203.195'
p1018
S'72.82.143.185'
p1019
I63741
I58004
tp1020
I5
s(S'32.86.92.238'
p1021
S'157.54.115.134'
p1022
I11128
I62136
tp1023
I1
s(S'206.3.35.57'
p1024
S'212.41.23.160'
p1025
I31682
I54006
tp1026
I6
s(S'190.148.109.199'
p1027
S'87.49.185.204'
p1028
I57770
I44344
tp1029
I8
s(S'80.181.74.45'
p1030
S'42.253.16.97'
p1031
I26651
I8980
tp1032
I8
s(S'196.228.61.115'
p1033
S'26.102.22.58'
p1034
I29019
I41581
tp1035
I6
s(S'13.228.35.27'
p1036
S'234.248.180.219'
p1037
I64526
I50480
tp1038
I5
s(S'24.243.118.208'
p1039
S'164.93.10.186'
p1040
I3545
I58717
tp1041
I6
s(S'250.15.22.32'
p1042
S'56.188.95.116'
p1043
I53705
I24422
tp1044
I4
s(S'108.240.177.167'
p1045
S'207.74.178.139'
p1046
I51665
I2848
tp1047
I0
s(S'237.127.210.83'
p1048
S'126.178.105.49'
p1049
I19236
I30484
tp1050
I7
s(S'46.18.131.124'
p1051
S'160.244.130.116'
p1052
I17100
I12799
tp1053
I4
s(S'171.231.82.144'
p1054
S'121.156.180.120'
p1055
I19312
I35262
tp1056
I1
s(S'227.143.243.81'
p1057
S'100.142.162.13'
p1058
I30353
I61508
tp1059
I4
s(S'137.128.95.61'
p1060
S'60.70.176.49'
p1061
I38195
I67
tp1062
I6
s(S'133.106.187.235'
p1063
S'227.95.134.210'
p1064
I43153
I12702
tp1065
I9
s(S'198.125.137.37'
p1066
S'113.213.25.147'
p1067
I34856
I15848
tp1068
I4
s(S'60.101.166.212'
p1069
S'88.173.50.153'
p1070
I23342
I33990
tp1071
I6
s(S'49.227.209.54'
p1072
S'176.48.34.113'
p1073
I35153
I34690
tp1074
I6
s(S'55.201.21.218'
p1075
S'221.1.113.226'
p1076
I31436
I42254
tp1077
I7
s(S'217.205.33.45'
p1078
S'71.111.43.130'
p1079
I27272
I4
tp1080
I5
s(S'175.87.210.106'
p1081
S'248.191.36.17'
p1082
I28518
I1338
tp1083
I8
s(S'36.131.157.84'
p1084
S'83.9.39.53'
p1085
I12489
I47211
tp1086
I6
s(S'200.223.205.83'
p1087
S'111.232.254.212'
p1088
I60955
I54164
tp1089
I3
s(S'248.67.197.182'
p1090
S'88.13.207.15'
p1091
I25201
I50485
tp1092
I7
s(S'19.190.1.2'
p1093
S'51.225.99.223'
p1094
I59364
I22745
tp1095
I7
s(S'148.151.41.178'
p1096
S'40.19.206.240'
p1097
I14671
I5759
tp1098
I9
s(S'35.58.131.126'
p1099
S'95.55.120.236'
p1100
I28295
I27475
tp1101
I5
s(S'235.103.242.181'
p1102
S'34.81.253.177'
p1103
I3360
I35124
tp1104
I6
s(S'160.132.226.17'
p1105
S'200.5.63.240'
p1106
I30682
I6243
tp1107
I5
s(S'189.219.157.103'
p1108
S'110.34.121.191'
p1109
I20815
I6355
tp1110
I2
s(S'208.74.142.40'
p1111
S'12.5.40.245'
p1112
I24957
I18437
tp1113
I6
s(S'60.112.51.232'
p1114
S'194.8.115.172'
p1115
I7868
I56779
tp1116
I6
s(S'59.18.94.143'
p1117
S'107.248.222.205'
p1118
I45270
I52470
tp1119
I6
s(S'206.14.211.25'
p1120
S'71.207.189.252'
p1121
I1912
I39994
tp1122
I7
s(S'157.218.88.145'
p1123
S'110.73.157.79'
p1124
I31962
I34726
tp1125
I9
s(S'138.171.42.184'
p1126
S'195.226.187.244'
p1127
I20322
I34132
tp1128
I4
s(S'155.235.249.168'
p1129
S'164.77.196.160'
p1130
I6113
I1288
tp1131
I8
s(S'35.22.224.115'
p1132
S'196.118.7.109'
p1133
I52990
I26287
tp1134
I4
s(S'235.153.81.217'
p1135
S'229.227.76.109'
p1136
I18161
I32922
tp1137
I2
s(S'19.209.195.238'
p1138
S'68.4.64.61'
p1139
I52240
I46880
tp1140
I2
s(S'80.178.51.101'
p1141
S'140.91.195.194'
p1142
I10460
I52420
tp1143
I6
s(S'24.139.81.152'
p1144
S'240.111.138.135'
p1145
I27542
I18331
tp1146
I5
s(S'195.74.49.166'
p1147
S'216.91.160.113'
p1148
I14196
I12908
tp1149
I6
s(S'48.124.29.73'
p1150
S'251.88.9.25'
p1151
I52490
I52201
tp1152
I5
s(S'185.134.195.76'
p1153
S'92.96.16.224'
p1154
I18804
I5644
tp1155
I3
s(S'100.117.144.253'
p1156
S'209.135.253.156'
p1157
I16013
I60651
tp1158
I9
s(S'220.212.20.218'
p1159
S'69.182.122.38'
p1160
I31646
I8782
tp1161
I4
s(S'249.231.144.85'
p1162
S'135.166.217.170'
p1163
I8179
I52790
tp1164
I3
s(S'158.67.220.196'
p1165
S'16.124.94.133'
p1166
I20151
I25843
tp1167
I3
s(S'50.96.210.51'
p1168
S'180.158.246.212'
p1169
I58043
I36608
tp1170
I5
s(S'236.238.154.178'
p1171
S'122.21.199.167'
p1172
I18773
I54048
tp1173
I7
s(S'47.94.239.112'
p1174
S'234.149.5.63'
p1175
I47126
I32080
tp1176
I8
s(S'43.51.106.7'
p1177
S'108.84.73.182'
p1178
I44701
I4275
tp1179
I7
s(S'234.213.104.255'
p1180
S'91.91.143.211'
p1181
I65328
I29403
tp1182
I4
s(S'110.227.55.45'
p1183
S'40.7.218.59'
p1184
I54774
I18652
tp1185
I6
s(S'248.168.107.72'
p1186
S'162.223.116.24'
p1187
I26513
I1128
tp1188
I3
s(S'65.181.181.123'
p1189
S'209.23.119.165'
p1190
I24689
I61023
tp1191
I5
s(S'225.185.164.109'
p1192
S'106.33.135.250'
p1193
I50552
I26520
tp1194
I3
s(S'131.52.14.103'
p1195
S'161.36.8.169'
p1196
I18852
I1206
tp1197
I5
s(S'152.248.111.251'
p1198
S'158.23.190.163'
p1199
I49289
I53122
tp1200
I3
s(S'16.109.132.102'
p1201
S'162.35.128.2'
p1202
I6231
I22417
tp1203
I3
s(S'10.34.217.200'
p1204
S'159.35.211.216'
p1205
I31658
I3856
tp1206
I4
s(S'152.154.222.214'
p1207
S'224.250.190.185'
p1208
I14088
I22182
tp1209
I5
s(S'18.7.156.253'
p1210
S'252.58.123.93'
p1211
I36278
I7464
tp1212
I7
s(S'24.22.188.104'
p1213
S'51.173.239.192'
p1214
I53375
I45523
tp1215
I3
s(S'235.178.26.141'
p1216
S'127.240.191.121'
p1217
I43424
I18727
tp1218
I5
s(S'243.175.27.34'
p1219
S'69.79.102.212'
p1220
I25628
I7140
tp1221
I3
s(S'243.157.180.43'
p1222
S'212.6.79.54'
p1223
I29418
I58950
tp1224
I6
s(S'197.102.72.164'
p1225
S'79.174.135.191'
p1226
I7396
I10688
tp1227
I2
s(S'52.65.22.208'
p1228
S'241.17.61.155'
p1229
I28445
I63926
tp1230
I2
s(S'125.96.255.155'
p1231
S'197.187.108.68'
p1232
I13231
I26885
tp1233
I3
s(S'12.242.241.231'
p1234
S'54.243.62.251'
p1235
I3719
I7250
tp1236
I7
s(S'171.181.7.55'
p1237
S'150.58.224.93'
p1238
I5956
I10005
tp1239
I7
s(S'242.229.144.95'
p1240
S'221.89.177.110'
p1241
I7608
I47452
tp1242
I1
s(S'242.190.39.185'
p1243
S'219.140.17.154'
p1244
I32661
I29928
tp1245
I5
s(S'249.59.227.86'
p1246
S'22.118.82.51'
p1247
I20643
I42907
tp1248
I3
s(S'136.20.99.188'
p1249
S'148.155.78.82'
p1250
I17482
I37970
tp1251
I5
s(S'75.157.20.115'
p1252
S'192.91.0.239'
p1253
I30895
I46813
tp1254
I8
s(S'89.236.93.48'
p1255
S'124.119.166.162'
p1256
I54342
I22027
tp1257
I7
s(S'239.138.24.246'
p1258
S'241.232.45.14'
p1259
I5175
I2546
tp1260
I5
s(S'34.88.54.45'
p1261
S'21.13.1.170'
p1262
I53850
I64433
tp1263
I3
s(S'72.150.128.20'
p1264
S'235.33.100.179'
p1265
I17076
I10094
tp1266
I8
s(S'14.158.48.130'
p1267
S'243.142.197.248'
p1268
I2068
I44709
tp1269
I3
s(S'76.57.63.185'
p1270
S'131.100.180.77'
p1271
I65354
I60433
tp1272
I5
s(S'184.254.160.49'
p1273
S'86.89.219.19'
p1274
I63726
I48375
tp1275
I7
s(S'199.93.226.186'
p1276
S'232.250.203.42'
p1277
I23470
I40336
tp1278
I4
s(S'152.157.239.146'
p1279
S'115.88.181.14'
p1280
I9799
I3113
tp1281
I3
s(S'185.25.198.242'
p1282
S'197.184.233.16'
p1283
I58009
I44630
tp1284
I11
s(S'54.69.18.131'
p1285
S'232.69.117.148'
p1286
I26942
I64043
tp1287
I5
s(S'234.186.222.85'
p1288
S'220.186.111.3'
p1289
I24322
I21499
tp1290
I8
s(S'211.41.78.95'
p1291
S'229.153.129.118'
p1292
I6112
I29372
tp1293
I6
s(S'35.121.214.160'
p1294
S'235.230.13.95'
p1295
I42469
I52687
tp1296
I7
s(S'160.28.83.115'
p1297
S'166.133.49.219'
p1298
I12726
I43302
tp1299
I7
s(S'56.210.168.7'
p1300
S'76.226.209.25'
p1301
I23075
I13623
tp1302
I7
s(S'57.104.10.30'
p1303
S'251.159.123.71'
p1304
I19928
I57815
tp1305
I1
s(S'162.117.88.99'
p1306
S'13.78.46.30'
p1307
I2930
I22071
tp1308
I4
s(S'126.80.124.167'
p1309
S'177.234.209.98'
p1310
I56652
I40980
tp1311
I7
s(S'54.253.9.164'
p1312
S'46.59.132.150'
p1313
I18455
I29056
tp1314
I5
s(S'94.106.72.82'
p1315
S'16.87.155.240'
p1316
I11447
I57579
tp1317
I7
s(S'187.107.117.205'
p1318
S'49.8.46.147'
p1319
I45792
I30684
tp1320
I9
s(S'231.40.8.59'
p1321
S'14.234.41.84'
p1322
I22935
I10035
tp1323
I8
s(S'16.82.206.32'
p1324
S'232.209.172.20'
p1325
I46182
I9339
tp1326
I8
s(S'43.10.152.209'
p1327
S'248.238.207.217'
p1328
I4635
I22044
tp1329
I5
s(S'32.217.91.153'
p1330
S'232.157.19.185'
p1331
I8785
I34865
tp1332
I5
s(S'214.138.209.11'
p1333
S'131.118.188.208'
p1334
I31474
I28231
tp1335
I2
s(S'146.83.30.110'
p1336
S'206.68.164.250'
p1337
I21523
I11546
tp1338
I7
s(S'177.155.150.100'
p1339
S'131.48.152.213'
p1340
I30485
I26384
tp1341
I6
s(S'110.207.161.182'
p1342
S'240.167.23.187'
p1343
I18364
I7764
tp1344
I3
s(S'98.100.56.73'
p1345
S'111.143.233.187'
p1346
I35779
I11597
tp1347
I6
s(S'12.106.179.131'
p1348
S'135.196.48.171'
p1349
I55987
I29391
tp1350
I6
s(S'223.238.124.26'
p1351
S'88.171.51.61'
p1352
I11613
I1733
tp1353
I11
s(S'228.109.129.179'
p1354
S'251.227.49.122'
p1355
I57027
I13907
tp1356
I4
s(S'204.238.180.232'
p1357
S'11.145.103.244'
p1358
I3762
I59530
tp1359
I6
s(S'77.8.31.96'
p1360
S'128.64.160.166'
p1361
I10814
I14667
tp1362
I2
s(S'49.204.111.178'
p1363
S'209.46.55.250'
p1364
I49059
I37678
tp1365
I11
s(S'64.1.179.173'
p1366
S'122.99.0.143'
p1367
I17602
I40121
tp1368
I5
s(S'24.147.88.141'
p1369
S'160.62.96.0'
p1370
I35317
I49288
tp1371
I4
s(S'164.124.67.177'
p1372
S'249.41.17.11'
p1373
I29849
I11668
tp1374
I5
s(S'217.184.114.195'
p1375
S'205.115.237.214'
p1376
I34477
I25636
tp1377
I3
s(S'19.42.170.121'
p1378
S'253.28.124.136'
p1379
I35497
I20412
tp1380
I7
s(S'66.30.74.251'
p1381
S'107.88.202.95'
p1382
I28130
I62482
tp1383
I2
s(S'252.224.248.255'
p1384
S'189.192.84.112'
p1385
I65001
I14840
tp1386
I4
s(S'76.231.65.15'
p1387
S'41.253.249.193'
p1388
I29655
I38886
tp1389
I2
s(S'208.235.41.254'
p1390
S'29.107.2.68'
p1391
I12300
I29510
tp1392
I3
s(S'125.109.251.87'
p1393
S'103.136.48.54'
p1394
I10302
I49512
tp1395
I5
s(S'173.118.251.235'
p1396
S'182.207.198.171'
p1397
I37801
I20545
tp1398
I9
s(S'40.222.88.240'
p1399
S'251.119.70.212'
p1400
I24087
I10814
tp1401
I7
s(S'106.76.130.198'
p1402
S'207.253.247.155'
p1403
I50405
I28312
tp1404
I8
s(S'238.14.175.3'
p1405
S'249.185.224.153'
p1406
I3073
I59815
tp1407
I2
s(S'97.156.239.164'
p1408
S'72.144.251.201'
p1409
I27502
I35082
tp1410
I4
s(S'97.252.149.90'
p1411
S'170.180.93.61'
p1412
I45367
I49717
tp1413
I7
s(S'42.192.83.103'
p1414
S'240.148.153.178'
p1415
I55321
I58118
tp1416
I6
s(S'16.178.172.177'
p1417
S'69.139.49.131'
p1418
I60995
I909
tp1419
I7
s(S'242.45.255.134'
p1420
S'156.133.203.170'
p1421
I58170
I41051
tp1422
I6
s(S'54.129.252.245'
p1423
S'57.243.115.236'
p1424
I55845
I17317
tp1425
I3
s(S'223.228.105.77'
p1426
S'145.195.100.188'
p1427
I50050
I55338
tp1428
I5
s(S'161.10.211.21'
p1429
S'201.200.183.123'
p1430
I26790
I19851
tp1431
I6
s(S'227.23.56.105'
p1432
S'172.102.68.62'
p1433
I43143
I10376
tp1434
I3
s(S'14.78.212.123'
p1435
S'172.51.244.187'
p1436
I25734
I24944
tp1437
I9
s(S'44.229.45.236'
p1438
S'180.247.75.149'
p1439
I26247
I27976
tp1440
I5
s(S'59.19.63.4'
p1441
S'214.121.97.103'
p1442
I26062
I57142
tp1443
I1
s(S'173.218.240.113'
p1444
S'246.64.255.53'
p1445
I52680
I42603
tp1446
I10
s(S'52.104.33.219'
p1447
S'107.146.98.70'
p1448
I6636
I31198
tp1449
I10
s(S'225.194.87.92'
p1450
S'197.186.78.253'
p1451
I40019
I726
tp1452
I2
s(S'89.71.116.120'
p1453
S'37.153.129.215'
p1454
I938
I9709
tp1455
I3
s(S'175.251.237.53'
p1456
S'41.101.140.58'
p1457
I9306
I14673
tp1458
I4
s(S'16.122.206.106'
p1459
S'141.199.102.92'
p1460
I30513
I65325
tp1461
I6
s(S'185.125.40.69'
p1462
S'19.176.79.118'
p1463
I57619
I53834
tp1464
I3
s(S'121.228.42.119'
p1465
S'152.149.147.40'
p1466
I27050
I34934
tp1467
I4
s(S'136.98.55.81'
p1468
S'198.70.201.253'
p1469
I11420
I39444
tp1470
I2
s(S'58.220.202.121'
p1471
S'173.156.224.221'
p1472
I57240
I21780
tp1473
I8
s(S'98.29.55.167'
p1474
S'79.151.220.206'
p1475
I19878
I34319
tp1476
I9
s(S'217.199.75.42'
p1477
S'51.60.182.113'
p1478
I59520
I40846
tp1479
I5
s(S'90.182.236.211'
p1480
S'202.235.94.138'
p1481
I46958
I13974
tp1482
I5
s(S'100.178.0.135'
p1483
S'36.107.5.196'
p1484
I64111
I58796
tp1485
I6
s(S'31.32.19.179'
p1486
S'41.65.63.177'
p1487
I48564
I35238
tp1488
I4
s(S'141.28.245.108'
p1489
S'203.107.154.149'
p1490
I41915
I48352
tp1491
I6
s(S'101.48.140.243'
p1492
S'73.172.252.145'
p1493
I29457
I62842
tp1494
I7
s(S'177.74.228.11'
p1495
S'127.193.197.71'
p1496
I29307
I31955
tp1497
I2
s(S'200.91.136.83'
p1498
S'226.188.162.57'
p1499
I44928
I49542
tp1500
I3
s(S'76.132.253.223'
p1501
S'39.186.215.16'
p1502
I44377
I44296
tp1503
I6
s(S'35.221.140.117'
p1504
S'101.174.0.101'
p1505
I15060
I7510
tp1506
I7
s(S'93.109.115.240'
p1507
S'98.199.251.161'
p1508
I47297
I21241
tp1509
I3
s(S'207.83.90.183'
p1510
S'116.123.156.30'
p1511
I12728
I30732
tp1512
I3
s(S'93.197.236.75'
p1513
S'210.91.23.139'
p1514
I22815
I42579
tp1515
I2
s(S'152.182.134.125'
p1516
S'42.74.168.132'
p1517
I5374
I47843
tp1518
I5
s(S'198.156.14.129'
p1519
S'249.109.3.88'
p1520
I78
I29415
tp1521
I5
s(S'214.63.212.142'
p1522
S'152.169.72.48'
p1523
I28970
I59788
tp1524
I2
s(S'199.129.191.130'
p1525
S'95.193.39.64'
p1526
I32464
I38165
tp1527
I3
s(S'198.35.4.245'
p1528
S'206.47.133.227'
p1529
I5638
I28271
tp1530
I6
s(S'234.158.162.62'
p1531
S'53.185.173.98'
p1532
I50989
I21069
tp1533
I8
s(S'137.87.44.132'
p1534
S'118.174.254.61'
p1535
I31626
I18345
tp1536
I4
s(S'194.213.21.68'
p1537
S'55.109.199.47'
p1538
I22498
I62691
tp1539
I8
s(S'195.236.85.251'
p1540
S'78.91.109.117'
p1541
I59437
I18795
tp1542
I7
s(S'33.173.67.129'
p1543
S'102.224.172.143'
p1544
I10518
I40849
tp1545
I8
s(S'26.100.191.75'
p1546
S'105.60.189.194'
p1547
I25259
I35078
tp1548
I1
s(S'113.23.149.109'
p1549
S'147.206.151.163'
p1550
I43486
I49755
tp1551
I8
s(S'31.137.241.201'
p1552
S'152.21.9.138'
p1553
I2337
I26454
tp1554
I5
s(S'253.152.90.116'
p1555
S'193.204.199.180'
p1556
I24978
I64757
tp1557
I3
s(S'120.65.89.39'
p1558
S'157.48.143.215'
p1559
I30639
I1876
tp1560
I6
s(S'29.27.198.136'
p1561
S'137.107.80.19'
p1562
I57567
I8843
tp1563
I3
s(S'52.55.118.140'
p1564
S'205.114.5.108'
p1565
I11877
I57851
tp1566
I5
s(S'245.108.136.129'
p1567
S'244.118.47.90'
p1568
I47204
I25257
tp1569
I3
s(S'39.15.210.70'
p1570
S'212.213.124.161'
p1571
I14792
I44908
tp1572
I5
s(S'251.13.178.58'
p1573
S'140.215.84.195'
p1574
I29753
I24262
tp1575
I2
s(S'185.246.163.252'
p1576
S'136.133.212.52'
p1577
I60542
I20182
tp1578
I5
s(S'109.130.167.132'
p1579
S'222.152.254.249'
p1580
I60034
I58480
tp1581
I4
s(S'136.199.122.213'
p1582
S'97.10.142.80'
p1583
I20788
I4366
tp1584
I5
s(S'34.95.137.109'
p1585
S'57.75.65.205'
p1586
I47758
I53855
tp1587
I6
s(S'100.200.211.212'
p1588
S'13.132.30.105'
p1589
I35114
I32719
tp1590
I2
s(S'21.183.174.75'
p1591
S'149.100.197.104'
p1592
I63947
I38388
tp1593
I4
s(S'211.26.155.176'
p1594
S'158.126.223.6'
p1595
I51517
I55299
tp1596
I6
s(S'131.157.239.89'
p1597
S'113.217.184.18'
p1598
I11298
I57697
tp1599
I2
s(S'51.37.42.87'
p1600
S'173.228.202.27'
p1601
I52535
I30718
tp1602
I2
s(S'11.101.214.215'
p1603
S'21.93.151.71'
p1604
I8967
I52421
tp1605
I6
s(S'97.167.0.73'
p1606
S'68.39.15.48'
p1607
I31021
I14229
tp1608
I5
s(S'206.24.163.7'
p1609
S'157.144.20.162'
p1610
I2961
I62241
tp1611
I5
s(S'194.155.218.176'
p1612
S'251.47.252.49'
p1613
I12111
I6754
tp1614
I3
s(S'241.207.131.95'
p1615
S'80.89.31.170'
p1616
I64047
I10724
tp1617
I7
s(S'184.11.22.235'
p1618
S'164.230.160.98'
p1619
I45679
I33147
tp1620
I4
s(S'104.184.235.76'
p1621
S'122.212.74.16'
p1622
I56360
I51371
tp1623
I4
s(S'240.106.210.159'
p1624
S'158.92.179.176'
p1625
I28299
I22192
tp1626
I4
s(S'58.19.242.167'
p1627
S'63.165.191.224'
p1628
I31004
I37302
tp1629
I10
s(S'117.44.197.122'
p1630
S'58.26.203.106'
p1631
I3220
I41286
tp1632
I4
s(S'76.210.108.198'
p1633
S'134.41.39.207'
p1634
I1486
I61065
tp1635
I4
s(S'90.229.114.172'
p1636
S'238.29.213.205'
p1637
I64693
I39764
tp1638
I7
s(S'239.237.5.114'
p1639
S'140.163.99.36'
p1640
I45018
I49416
tp1641
I6
s(S'118.221.161.118'
p1642
S'223.89.111.183'
p1643
I7107
I20870
tp1644
I2
s(S'92.146.175.107'
p1645
S'190.111.137.158'
p1646
I57929
I18001
tp1647
I4
s(S'126.44.191.59'
p1648
S'45.177.54.65'
p1649
I29782
I58520
tp1650
I9
s(S'242.97.47.13'
p1651
S'203.239.137.140'
p1652
I48914
I4359
tp1653
I6
s(S'253.153.60.229'
p1654
S'132.251.145.86'
p1655
I57959
I56520
tp1656
I1
s(S'149.149.190.11'
p1657
S'106.76.224.246'
p1658
I42109
I58753
tp1659
I3
s(S'137.102.84.188'
p1660
S'95.149.219.207'
p1661
I50447
I29083
tp1662
I3
s(S'88.190.3.50'
p1663
S'99.62.32.195'
p1664
I23910
I17780
tp1665
I5
s(S'17.16.164.220'
p1666
S'184.213.2.120'
p1667
I53398
I18416
tp1668
I4
s(S'36.212.43.27'
p1669
S'227.177.64.194'
p1670
I29897
I1266
tp1671
I4
s(S'24.205.9.36'
p1672
S'31.67.231.227'
p1673
I57581
I8876
tp1674
I5
s(S'84.204.15.26'
p1675
S'187.74.116.8'
p1676
I58193
I33496
tp1677
I8
s(S'61.237.210.59'
p1678
S'15.206.232.129'
p1679
I4489
I41464
tp1680
I6
s(S'96.116.182.22'
p1681
S'224.194.232.37'
p1682
I35390
I40742
tp1683
I7
s(S'111.181.186.45'
p1684
S'58.40.168.213'
p1685
I59750
I53944
tp1686
I8
s(S'191.180.252.148'
p1687
S'85.147.188.136'
p1688
I57633
I5650
tp1689
I4
s(S'246.229.110.108'
p1690
S'191.166.85.55'
p1691
I30510
I24061
tp1692
I6
s(S'145.156.178.100'
p1693
S'30.20.254.105'
p1694
I40584
I45055
tp1695
I7
s(S'231.38.249.220'
p1696
S'35.114.43.209'
p1697
I3976
I10672
tp1698
I3
s(S'131.73.66.72'
p1699
S'224.85.142.176'
p1700
I4772
I52356
tp1701
I7
s(S'146.178.86.180'
p1702
S'180.184.35.89'
p1703
I50128
I52199
tp1704
I3
s(S'160.40.136.157'
p1705
S'187.40.229.48'
p1706
I24256
I19443
tp1707
I7
s(S'206.147.64.229'
p1708
S'133.233.96.244'
p1709
I13856
I28645
tp1710
I4
s(S'18.253.66.9'
p1711
S'141.9.81.200'
p1712
I31581
I15991
tp1713
I2
s(S'96.183.242.66'
p1714
S'167.173.250.250'
p1715
I40606
I26174
tp1716
I8
s(S'164.201.68.198'
p1717
S'38.113.120.249'
p1718
I45634
I10893
tp1719
I7
s(S'13.21.135.80'
p1720
S'228.174.190.124'
p1721
I2310
I56651
tp1722
I3
s(S'28.158.65.9'
p1723
S'212.164.76.243'
p1724
I23215
I22890
tp1725
I3
s(S'146.160.120.43'
p1726
S'91.202.88.95'
p1727
I14758
I49069
tp1728
I6
s(S'197.164.52.102'
p1729
S'174.165.26.49'
p1730
I19568
I44254
tp1731
I7
s(S'214.105.63.50'
p1732
S'246.48.84.146'
p1733
I50479
I38656
tp1734
I6
s(S'188.137.232.228'
p1735
S'134.85.97.22'
p1736
I34820
I13445
tp1737
I4
s(S'105.225.185.33'
p1738
S'106.24.36.111'
p1739
I55893
I46158
tp1740
I4
s(S'241.74.210.185'
p1741
S'27.123.2.135'
p1742
I47366
I27151
tp1743
I6
s(S'63.227.72.106'
p1744
S'165.42.245.49'
p1745
I36814
I23787
tp1746
I4
s(S'224.131.47.60'
p1747
S'186.153.74.59'
p1748
I53380
I27940
tp1749
I4
s(S'193.87.22.76'
p1750
S'155.180.184.66'
p1751
I54777
I1159
tp1752
I5
s(S'166.240.188.174'
p1753
S'42.239.41.29'
p1754
I54874
I39837
tp1755
I8
s(S'58.42.62.138'
p1756
S'122.141.90.151'
p1757
I48868
I18400
tp1758
I5
s(S'111.103.22.137'
p1759
S'191.167.51.39'
p1760
I43263
I54325
tp1761
I9
s(S'101.241.95.147'
p1762
S'10.199.180.127'
p1763
I62601
I15661
tp1764
I10
s(S'182.198.72.46'
p1765
S'161.159.189.251'
p1766
I51219
I13865
tp1767
I3
s(S'51.90.123.29'
p1768
S'150.134.105.80'
p1769
I43639
I23071
tp1770
I3
s(S'16.133.159.226'
p1771
S'141.146.179.85'
p1772
I16635
I25015
tp1773
I5
s(S'15.153.132.71'
p1774
S'183.240.4.86'
p1775
I51241
I36594
tp1776
I8
s(S'236.159.119.57'
p1777
S'69.111.235.237'
p1778
I57454
I27994
tp1779
I3
s(S'129.146.178.92'
p1780
S'197.39.199.170'
p1781
I33286
I14532
tp1782
I5
s(S'245.36.126.179'
p1783
S'147.53.16.193'
p1784
I47257
I28716
tp1785
I3
s(S'29.239.175.216'
p1786
S'128.3.163.160'
p1787
I3696
I17328
tp1788
I5
s(S'107.242.232.91'
p1789
S'190.198.181.166'
p1790
I12172
I27415
tp1791
I7
s(S'221.151.152.222'
p1792
S'188.43.58.23'
p1793
I21669
I6567
tp1794
I3
s(S'114.174.101.47'
p1795
S'201.45.98.249'
p1796
I62630
I43718
tp1797
I3
s(S'74.244.126.110'
p1798
S'53.171.154.247'
p1799
I38977
I53144
tp1800
I6
s(S'219.19.148.11'
p1801
S'178.123.227.141'
p1802
I10007
I2392
tp1803
I6
s(S'178.230.179.10'
p1804
S'249.252.254.56'
p1805
I64225
I13603
tp1806
I9
s(S'66.27.18.96'
p1807
S'202.131.2.186'
p1808
I40733
I28711
tp1809
I7
s(S'80.95.111.193'
p1810
S'227.19.216.19'
p1811
I21692
I64421
tp1812
I5
s(S'67.213.69.28'
p1813
S'219.18.28.132'
p1814
I28627
I33299
tp1815
I5
s(S'168.232.139.201'
p1816
S'69.200.87.209'
p1817
I9476
I49288
tp1818
I8
s(S'243.243.225.145'
p1819
S'60.238.133.11'
p1820
I58289
I45345
tp1821
I2
s(S'253.118.229.44'
p1822
S'35.236.211.60'
p1823
I54564
I13734
tp1824
I6
s(S'98.56.156.157'
p1825
S'243.120.18.229'
p1826
I15548
I1470
tp1827
I12
s(S'123.244.243.212'
p1828
S'161.239.91.88'
p1829
I32299
I59556
tp1830
I7
s(S'210.164.29.84'
p1831
S'57.135.121.228'
p1832
I7589
I54355
tp1833
I7
s(S'204.60.166.207'
p1834
S'38.251.43.206'
p1835
I39529
I23386
tp1836
I4
s(S'234.147.119.212'
p1837
S'134.171.192.1'
p1838
I15073
I13992
tp1839
I3
s(S'162.159.61.78'
p1840
S'44.255.229.240'
p1841
I49854
I20831
tp1842
I5
s(S'221.165.57.130'
p1843
S'225.52.164.25'
p1844
I59755
I11047
tp1845
I3
s(S'168.137.7.189'
p1846
S'194.54.198.230'
p1847
I34725
I63332
tp1848
I7
s(S'164.128.70.141'
p1849
S'178.209.50.119'
p1850
I29224
I30606
tp1851
I6
s(S'92.152.202.160'
p1852
S'63.33.87.208'
p1853
I28789
I30476
tp1854
I3
s(S'15.211.195.64'
p1855
S'92.163.221.39'
p1856
I5007
I42488
tp1857
I3
s(S'232.164.115.90'
p1858
S'65.199.27.83'
p1859
I36732
I44469
tp1860
I4
s(S'45.146.76.208'
p1861
S'120.31.157.145'
p1862
I2097
I17954
tp1863
I6
s(S'15.241.141.44'
p1864
S'33.7.140.205'
p1865
I10968
I20104
tp1866
I5
s(S'135.77.57.50'
p1867
S'129.67.169.208'
p1868
I13906
I42685
tp1869
I3
s(S'39.19.66.196'
p1870
S'10.62.188.165'
p1871
I21066
I5660
tp1872
I9
s(S'197.214.82.40'
p1873
S'26.34.98.143'
p1874
I27732
I42690
tp1875
I4
s(S'194.180.132.14'
p1876
S'251.129.85.102'
p1877
I6018
I62147
tp1878
I4
s(S'194.5.96.81'
p1879
S'120.53.244.209'
p1880
I15203
I54823
tp1881
I7
s(S'178.208.208.231'
p1882
S'155.154.76.135'
p1883
I56027
I62300
tp1884
I5
s(S'150.255.107.46'
p1885
S'60.58.28.96'
p1886
I55696
I48225
tp1887
I4
s(S'41.42.22.151'
p1888
S'58.194.67.80'
p1889
I4393
I62489
tp1890
I6
s(S'143.56.158.104'
p1891
S'48.82.201.82'
p1892
I22958
I27300
tp1893
I7
s(S'93.113.252.196'
p1894
S'217.68.162.192'
p1895
I18426
I19370
tp1896
I6
s(S'140.149.72.92'
p1897
S'50.108.229.121'
p1898
I5139
I35100
tp1899
I1
s(S'89.34.211.237'
p1900
S'149.30.91.136'
p1901
I35011
I34190
tp1902
I3
s(S'179.227.213.39'
p1903
S'81.210.7.233'
p1904
I42253
I47463
tp1905
I9666
s(S'72.250.59.210'
p1906
S'67.181.71.77'
p1907
I36957
I19124
tp1908
I6
s(S'171.137.146.92'
p1909
S'126.108.10.186'
p1910
I64068
I30683
tp1911
I8
s(S'15.71.200.65'
p1912
S'11.41.91.98'
p1913
I17753
I58606
tp1914
I5
s(S'229.12.239.226'
p1915
S'99.55.199.224'
p1916
I33337
I27903
tp1917
I7
s(S'218.18.95.82'
p1918
S'200.114.3.7'
p1919
I11808
I19477
tp1920
I2
s(S'199.113.162.143'
p1921
S'105.41.224.28'
p1922
I9760
I25072
tp1923
I6
s(S'65.113.245.253'
p1924
S'115.203.56.197'
p1925
I47153
I44048
tp1926
I7
s(S'198.219.178.23'
p1927
S'152.38.156.226'
p1928
I5238
I55837
tp1929
I8
s(S'130.67.130.129'
p1930
S'162.72.113.75'
p1931
I33775
I27024
tp1932
I9
s(S'246.95.215.251'
p1933
S'156.118.55.152'
p1934
I2752
I12475
tp1935
I4
s(S'107.40.26.130'
p1936
S'241.92.42.92'
p1937
I930
I63188
tp1938
I8
s(S'150.201.122.181'
p1939
S'26.14.187.201'
p1940
I40075
I58358
tp1941
I5
s(S'59.208.124.174'
p1942
S'232.158.22.147'
p1943
I852
I12258
tp1944
I10
s(S'113.248.105.100'
p1945
S'20.167.134.133'
p1946
I51771
I3643
tp1947
I11
s(S'33.178.77.165'
p1948
S'181.16.25.117'
p1949
I34970
I63917
tp1950
I3
s(S'112.204.95.130'
p1951
S'228.202.93.102'
p1952
I57080
I29151
tp1953
I5
s(S'180.227.202.224'
p1954
S'45.37.200.253'
p1955
I25343
I22698
tp1956
I4
s(S'75.124.239.94'
p1957
S'232.84.10.217'
p1958
I16115
I13444
tp1959
I8
s(S'212.38.4.93'
p1960
S'182.43.102.8'
p1961
I14895
I3695
tp1962
I2
s(S'29.222.107.11'
p1963
S'224.210.63.188'
p1964
I31374
I40616
tp1965
I8
s(S'209.123.46.24'
p1966
S'68.6.15.51'
p1967
I11158
I24766
tp1968
I6
s(S'46.131.211.60'
p1969
S'83.237.226.112'
p1970
I18631
I40964
tp1971
I8
s(S'189.100.80.101'
p1972
S'55.248.34.77'
p1973
I4073
I14969
tp1974
I4
s(S'152.229.60.174'
p1975
S'89.163.34.226'
p1976
I35200
I51277
tp1977
I6
s(S'172.158.133.248'
p1978
S'120.137.101.172'
p1979
I18753
I20654
tp1980
I3
s(S'85.75.64.80'
p1981
S'105.200.114.236'
p1982
I17076
I4458
tp1983
I5
s(S'185.119.137.215'
p1984
S'143.166.147.232'
p1985
I23705
I4890
tp1986
I9
s(S'231.97.186.241'
p1987
S'246.71.203.232'
p1988
I60948
I15413
tp1989
I6
s(S'157.214.24.107'
p1990
S'117.150.111.234'
p1991
I32315
I11387
tp1992
I8
s(S'169.155.39.157'
p1993
S'161.238.80.143'
p1994
I61186
I43784
tp1995
I4
s(S'33.72.43.88'
p1996
S'178.30.168.236'
p1997
I21021
I3757
tp1998
I4
s(S'112.165.203.189'
p1999
S'213.206.45.207'
p2000
I51979
I41641
tp2001
I6
s(S'172.61.75.33'
p2002
S'88.42.1.171'
p2003
I31842
I26081
tp2004
I3
s(S'51.75.36.132'
p2005
S'46.91.98.36'
p2006
I22178
I28868
tp2007
I6
s(S'166.237.131.101'
p2008
S'117.143.69.254'
p2009
I49081
I6660
tp2010
I6
s(S'53.204.149.150'
p2011
S'214.69.168.8'
p2012
I10562
I54619
tp2013
I3
s(S'14.243.207.70'
p2014
S'123.51.82.93'
p2015
I4408
I45020
tp2016
I1
s(S'172.29.86.61'
p2017
S'84.9.147.186'
p2018
I8194
I21141
tp2019
I8
s(S'194.44.160.231'
p2020
S'165.221.175.48'
p2021
I3484
I569
tp2022
I6
s(S'54.184.211.47'
p2023
S'210.55.106.189'
p2024
I14149
I30792
tp2025
I6
s(S'28.181.73.191'
p2026
S'149.86.218.134'
p2027
I61821
I13133
tp2028
I5
s(S'236.54.27.29'
p2029
S'238.151.119.95'
p2030
I60041
I47662
tp2031
I9417
s(S'36.212.98.116'
p2032
S'49.244.231.31'
p2033
I59770
I39086
tp2034
I6
s(S'119.93.197.66'
p2035
S'79.148.85.138'
p2036
I24115
I54572
tp2037
I5
s(S'242.162.186.208'
p2038
S'172.105.203.71'
p2039
I51650
I23406
tp2040
I5
s(S'156.29.55.3'
p2041
S'136.194.176.173'
p2042
I36221
I2673
tp2043
I3
s(S'100.46.107.90'
p2044
S'104.3.172.93'
p2045
I11659
I11898
tp2046
I12
s(S'206.218.94.167'
p2047
S'34.214.143.198'
p2048
I6892
I44501
tp2049
I6
s(S'64.248.71.122'
p2050
S'173.204.193.93'
p2051
I1990
I49520
tp2052
I5
s(S'186.55.58.210'
p2053
S'246.239.136.212'
p2054
I59324
I28941
tp2055
I3
s(S'223.199.230.200'
p2056
S'110.232.241.104'
p2057
I39078
I39691
tp2058
I6
s(S'214.245.240.193'
p2059
S'115.137.33.41'
p2060
I51358
I46044
tp2061
I7
s(S'91.224.147.190'
p2062
S'154.0.36.121'
p2063
I49267
I16911
tp2064
I2
s(S'176.243.202.114'
p2065
S'162.205.33.14'
p2066
I42197
I49237
tp2067
I6
s(S'212.215.57.5'
p2068
S'60.96.234.224'
p2069
I47597
I4107
tp2070
I6
s(S'49.69.10.41'
p2071
S'237.18.18.250'
p2072
I50984
I39452
tp2073
I5
s(S'167.239.22.233'
p2074
S'98.18.24.222'
p2075
I32483
I23297
tp2076
I3
s(S'104.75.151.92'
p2077
S'236.192.181.29'
p2078
I53875
I12688
tp2079
I10
s(S'35.204.199.89'
p2080
S'14.175.116.206'
p2081
I50098
I31512
tp2082
I4
s(S'148.111.163.60'
p2083
S'25.212.250.114'
p2084
I16732
I38249
tp2085
I5
s(S'152.128.49.196'
p2086
S'24.62.167.176'
p2087
I52172
I54314
tp2088
I6
s(S'172.81.157.250'
p2089
S'64.165.167.95'
p2090
I15842
I3598
tp2091
I7
s(S'91.32.71.41'
p2092
S'34.81.58.213'
p2093
I27323
I51271
tp2094
I4
s(S'215.82.73.80'
p2095
S'97.178.24.105'
p2096
I48170
I17240
tp2097
I4
s(S'96.8.26.251'
p2098
S'227.94.175.25'
p2099
I61469
I13454
tp2100
I3
s(S'155.171.202.74'
p2101
S'65.206.214.175'
p2102
I38642
I50577
tp2103
I4
s(S'96.157.241.109'
p2104
S'90.42.144.174'
p2105
I34386
I22459
tp2106
I3
s(S'164.0.97.178'
p2107
S'138.119.224.232'
p2108
I510
I8616
tp2109
I8
s(S'241.163.13.28'
p2110
S'127.121.184.10'
p2111
I46558
I1368
tp2112
I9
s(S'104.200.172.88'
p2113
S'234.84.165.113'
p2114
I36838
I25304
tp2115
I5
s(S'198.56.211.15'
p2116
S'33.237.203.9'
p2117
I28950
I16582
tp2118
I4
s(S'92.97.78.211'
p2119
S'166.190.110.148'
p2120
I14433
I12197
tp2121
I3
s(S'13.81.31.149'
p2122
S'89.192.233.198'
p2123
I11232
I31378
tp2124
I0
s(S'231.211.62.5'
p2125
S'16.113.129.153'
p2126
I3067
I57607
tp2127
I3
s(S'221.189.66.139'
p2128
S'131.170.205.34'
p2129
I55661
I27234
tp2130
I3
s(S'63.143.103.174'
p2131
S'46.197.110.213'
p2132
I38958
I56023
tp2133
I5
s(S'238.204.255.82'
p2134
S'185.49.116.115'
p2135
I9996
I46153
tp2136
I7
s(S'81.167.4.232'
p2137
S'123.71.19.45'
p2138
I61983
I50931
tp2139
I5
s(S'165.16.106.200'
p2140
S'60.4.45.127'
p2141
I919
I58658
tp2142
I1
s(S'10.140.198.248'
p2143
S'235.168.155.120'
p2144
I55536
I42042
tp2145
I3
s(S'24.252.0.163'
p2146
S'21.5.145.235'
p2147
I44605
I12647
tp2148
I5
s(S'57.224.130.127'
p2149
S'239.249.202.163'
p2150
I43947
I671
tp2151
I6
s(S'163.94.72.253'
p2152
S'219.243.144.15'
p2153
I59728
I15676
tp2154
I8
s(S'105.121.186.208'
p2155
S'10.248.20.39'
p2156
I35426
I28541
tp2157
I8
s(S'166.162.71.231'
p2158
S'141.65.186.185'
p2159
I25135
I53850
tp2160
I5
s(S'230.156.155.33'
p2161
S'124.114.114.26'
p2162
I8766
I25407
tp2163
I3
s(S'92.210.222.164'
p2164
S'80.162.22.184'
p2165
I61042
I60826
tp2166
I3
s(S'17.240.115.76'
p2167
S'67.253.252.213'
p2168
I18879
I12837
tp2169
I3
s(S'148.72.50.192'
p2170
S'64.181.74.206'
p2171
I53428
I31992
tp2172
I2
s(S'159.156.110.13'
p2173
S'194.36.7.165'
p2174
I40781
I6829
tp2175
I5
s(S'193.1.96.112'
p2176
S'27.40.150.69'
p2177
I21658
I52666
tp2178
I6
s(S'147.97.47.76'
p2179
S'241.88.114.34'
p2180
I60820
I30991
tp2181
I8
s(S'70.51.34.32'
p2182
S'123.147.88.121'
p2183
I45269
I20759
tp2184
I3
s(S'135.215.190.55'
p2185
S'186.24.8.117'
p2186
I48958
I27874
tp2187
I5
s(S'90.119.114.200'
p2188
S'176.250.93.232'
p2189
I35777
I4680
tp2190
I9
s(S'141.0.215.65'
p2191
S'117.141.241.164'
p2192
I45339
I28304
tp2193
I2
s(S'21.176.170.139'
p2194
S'149.64.215.187'
p2195
I33289
I28210
tp2196
I9
s(S'12.148.140.121'
p2197
S'240.23.221.115'
p2198
I2805
I56629
tp2199
I1
s(S'221.70.126.98'
p2200
S'122.246.232.102'
p2201
I22838
I13759
tp2202
I3
s(S'159.241.208.104'
p2203
S'238.55.173.82'
p2204
I37225
I14813
tp2205
I5
s(S'204.53.15.209'
p2206
S'15.217.40.52'
p2207
I65079
I26186
tp2208
I3
s(S'146.143.197.146'
p2209
S'65.37.7.211'
p2210
I54618
I57928
tp2211
I3
s(S'222.98.0.240'
p2212
S'242.72.204.152'
p2213
I47006
I38124
tp2214
I6
s(S'128.169.140.135'
p2215
S'184.13.144.189'
p2216
I36885
I12068
tp2217
I4
s(S'192.74.170.119'
p2218
S'75.117.49.219'
p2219
I26354
I14164
tp2220
I8
s(S'43.192.251.223'
p2221
S'196.37.109.9'
p2222
I45139
I53878
tp2223
I8
s(S'227.75.69.2'
p2224
S'129.86.91.213'
p2225
I14683
I9414
tp2226
I4
s(S'166.151.49.141'
p2227
S'218.222.24.181'
p2228
I42952
I24576
tp2229
I5
s(S'44.61.181.22'
p2230
S'46.29.203.127'
p2231
I32678
I57752
tp2232
I6
s(S'128.219.236.70'
p2233
S'200.171.189.183'
p2234
I24103
I48936
tp2235
I6
s(S'138.108.19.41'
p2236
S'24.200.57.142'
p2237
I53809
I37570
tp2238
I3
s(S'184.222.120.250'
p2239
S'70.45.50.112'
p2240
I40995
I56732
tp2241
I5
s(S'84.251.152.85'
p2242
S'28.54.44.117'
p2243
I55643
I56058
tp2244
I4
s(S'191.3.68.218'
p2245
S'94.113.75.254'
p2246
I33048
I42861
tp2247
I6
s(S'10.187.193.196'
p2248
S'133.205.246.145'
p2249
I22391
I27399
tp2250
I4
s(S'224.149.208.233'
p2251
S'61.41.207.196'
p2252
I27833
I21397
tp2253
I8
s(S'150.180.10.144'
p2254
S'111.91.191.51'
p2255
I11978
I38264
tp2256
I7
s(S'24.198.113.170'
p2257
S'241.176.116.2'
p2258
I1048
I17371
tp2259
I1
s(S'149.244.176.201'
p2260
S'97.195.3.182'
p2261
I39794
I59070
tp2262
I7
s(S'158.87.166.76'
p2263
S'24.192.240.98'
p2264
I62149
I27319
tp2265
I3
s(S'75.220.134.20'
p2266
S'209.27.187.34'
p2267
I1440
I64670
tp2268
I8
s(S'54.40.137.8'
p2269
S'57.3.59.225'
p2270
I42255
I755
tp2271
I8
s(S'61.51.31.188'
p2272
S'191.187.137.166'
p2273
I20586
I49596
tp2274
I3
s(S'191.243.213.54'
p2275
S'219.140.21.100'
p2276
I44385
I40483
tp2277
I5
s(S'191.163.247.208'
p2278
S'151.64.23.234'
p2279
I22923
I12843
tp2280
I4
s(S'202.56.14.196'
p2281
S'168.76.3.100'
p2282
I53683
I57926
tp2283
I2
s(S'128.128.217.8'
p2284
S'15.217.140.95'
p2285
I8847
I27130
tp2286
I3
s(S'90.99.230.121'
p2287
S'22.169.2.31'
p2288
I22105
I19133
tp2289
I9557
s(S'168.109.191.167'
p2290
S'185.252.102.9'
p2291
I41824
I63221
tp2292
I8
s(S'126.70.17.39'
p2293
S'43.192.61.106'
p2294
I46560
I20684
tp2295
I6
s(S'162.147.86.64'
p2296
S'103.9.43.224'
p2297
I57825
I34346
tp2298
I7
s(S'91.11.230.68'
p2299
S'194.42.34.53'
p2300
I43984
I3139
tp2301
I9
s(S'31.119.42.64'
p2302
S'60.252.254.13'
p2303
I52023
I16842
tp2304
I4
s(S'61.72.68.211'
p2305
S'43.119.149.208'
p2306
I47
I48564
tp2307
I8
s(S'228.6.196.117'
p2308
S'71.204.101.250'
p2309
I24644
I54774
tp2310
I6
s(S'22.34.93.159'
p2311
S'124.130.113.254'
p2312
I36976
I40721
tp2313
I8
s(S'84.89.61.16'
p2314
S'248.218.40.119'
p2315
I14602
I31627
tp2316
I6
s(S'76.154.26.182'
p2317
S'203.114.96.24'
p2318
I1125
I56797
tp2319
I5
s(S'243.69.7.116'
p2320
S'153.52.209.225'
p2321
I36852
I28288
tp2322
I4
s(S'42.184.59.114'
p2323
S'252.220.227.234'
p2324
I39031
I58357
tp2325
I3
s(S'139.112.23.159'
p2326
S'217.127.172.85'
p2327
I18744
I62238
tp2328
I3
s(S'172.42.198.237'
p2329
S'134.5.76.47'
p2330
I4824
I29123
tp2331
I8
s(S'249.175.105.36'
p2332
S'153.126.153.217'
p2333
I23326
I48330
tp2334
I7
s(S'208.119.48.43'
p2335
S'246.133.18.88'
p2336
I992
I22203
tp2337
I4
s(S'136.78.82.250'
p2338
S'218.128.16.193'
p2339
I37711
I63174
tp2340
I4
s(S'112.87.153.134'
p2341
S'192.234.32.188'
p2342
I21054
I25761
tp2343
I4
s(S'188.90.40.52'
p2344
S'217.18.47.170'
p2345
I3901
I53105
tp2346
I5
s(S'186.247.251.187'
p2347
S'128.226.149.218'
p2348
I48853
I47197
tp2349
I12
s(S'76.18.71.155'
p2350
S'172.30.233.83'
p2351
I36298
I32027
tp2352
I3
s(S'42.9.79.19'
p2353
S'23.227.104.67'
p2354
I16252
I18293
tp2355
I4
s(S'94.15.115.8'
p2356
S'120.145.120.32'
p2357
I39972
I48581
tp2358
I4
s(S'10.7.239.152'
p2359
S'184.246.230.11'
p2360
I51342
I45175
tp2361
I8
s(S'23.195.202.248'
p2362
S'54.105.140.55'
p2363
I27314
I37152
tp2364
I3
s(S'29.209.150.39'
p2365
S'59.127.250.13'
p2366
I61424
I61720
tp2367
I7
s(S'219.99.208.9'
p2368
S'137.199.217.238'
p2369
I21834
I12010
tp2370
I4
s(S'112.130.150.5'
p2371
S'231.151.208.140'
p2372
I8040
I21095
tp2373
I6
s(S'178.90.131.73'
p2374
S'196.84.39.194'
p2375
I26807
I20500
tp2376
I4
s(S'222.99.89.102'
p2377
S'52.58.232.105'
p2378
I25637
I12184
tp2379
I5
s(S'115.50.118.166'
p2380
S'83.49.187.160'
p2381
I48656
I34203
tp2382
I5
s(S'105.247.97.162'
p2383
S'153.135.34.31'
p2384
I1896
I10262
tp2385
I12
s(S'102.1.107.222'
p2386
S'24.197.25.158'
p2387
I26341
I60774
tp2388
I13
s(S'168.58.56.216'
p2389
S'237.37.113.132'
p2390
I6380
I38227
tp2391
I7
s(S'85.100.218.135'
p2392
S'172.71.251.143'
p2393
I30695
I48996
tp2394
I6
s(S'65.133.26.246'
p2395
S'180.104.35.161'
p2396
I29181
I33712
tp2397
I8
s(S'21.142.17.245'
p2398
S'89.85.70.191'
p2399
I65489
I6147
tp2400
I12
s(S'221.210.231.28'
p2401
S'189.3.55.15'
p2402
I4442
I59438
tp2403
I3
s(S'40.180.99.91'
p2404
S'207.38.15.243'
p2405
I21154
I30672
tp2406
I5
s(S'147.0.156.142'
p2407
S'153.234.69.23'
p2408
I62863
I51106
tp2409
I3
s(S'54.161.133.177'
p2410
S'231.186.50.171'
p2411
I3514
I10313
tp2412
I9
s(S'113.64.44.163'
p2413
S'218.160.58.131'
p2414
I58407
I56944
tp2415
I5
s(S'218.204.212.239'
p2416
S'127.136.150.235'
p2417
I17631
I27343
tp2418
I4
s(S'99.144.214.8'
p2419
S'198.25.251.91'
p2420
I41587
I19256
tp2421
I7
s(S'110.78.38.125'
p2422
S'119.166.207.223'
p2423
I46085
I22415
tp2424
I7
s(S'139.70.86.138'
p2425
S'62.156.168.105'
p2426
I24576
I52557
tp2427
I4
s(S'46.237.58.24'
p2428
S'96.249.119.29'
p2429
I15107
I43297
tp2430
I4
s(S'169.229.151.72'
p2431
S'20.209.233.62'
p2432
I11008
I19944
tp2433
I6
s(S'136.37.0.231'
p2434
S'182.62.18.134'
p2435
I48133
I6645
tp2436
I7
s(S'155.124.89.12'
p2437
S'12.115.42.217'
p2438
I12856
I49937
tp2439
I5
s(S'221.120.232.185'
p2440
S'208.74.90.138'
p2441
I61615
I19366
tp2442
I11
s(S'163.62.238.15'
p2443
S'82.64.11.106'
p2444
I41028
I26094
tp2445
I4
s(S'101.53.240.54'
p2446
S'179.78.210.5'
p2447
I28273
I35504
tp2448
I3
s(S'58.139.169.48'
p2449
S'175.199.230.247'
p2450
I24845
I18282
tp2451
I2
s(S'109.220.111.210'
p2452
S'127.128.0.40'
p2453
I57507
I40995
tp2454
I7
s(S'224.235.111.197'
p2455
S'171.22.130.78'
p2456
I63035
I19876
tp2457
I4
s(S'193.32.28.144'
p2458
S'229.72.6.52'
p2459
I36088
I13243
tp2460
I6
s(S'208.7.255.65'
p2461
S'181.41.230.156'
p2462
I64129
I51142
tp2463
I7
s(S'203.200.159.229'
p2464
S'79.156.5.46'
p2465
I22021
I20523
tp2466
I2
s(S'52.234.153.83'
p2467
S'47.181.160.44'
p2468
I9164
I14061
tp2469
I5
s(S'173.195.43.187'
p2470
S'186.247.100.39'
p2471
I22433
I26327
tp2472
I2
s(S'126.127.83.88'
p2473
S'202.8.98.28'
p2474
I20382
I6798
tp2475
I6
s(S'205.118.49.132'
p2476
S'193.122.229.139'
p2477
I15287
I21256
tp2478
I5
s(S'167.5.208.110'
p2479
S'247.81.117.11'
p2480
I2239
I45406
tp2481
I7
s(S'197.75.173.159'
p2482
S'73.195.235.235'
p2483
I35438
I64503
tp2484
I3
s(S'67.195.74.52'
p2485
S'28.80.196.225'
p2486
I8289
I13253
tp2487
I4
s(S'170.125.57.50'
p2488
S'154.158.102.161'
p2489
I34074
I2165
tp2490
I9
s(S'235.7.112.215'
p2491
S'187.215.117.29'
p2492
I56854
I2716
tp2493
I5
s(S'86.170.118.17'
p2494
S'183.73.117.26'
p2495
I54638
I55781
tp2496
I1
s(S'185.154.113.184'
p2497
S'169.170.4.64'
p2498
I24664
I7479
tp2499
I9
s(S'69.80.229.167'
p2500
S'46.1.20.64'
p2501
I11594
I39044
tp2502
I6
s(S'127.255.167.194'
p2503
S'223.139.66.16'
p2504
I19154
I52068
tp2505
I3
s(S'168.106.121.102'
p2506
S'60.97.2.53'
p2507
I48956
I23184
tp2508
I5
s(S'163.170.137.18'
p2509
S'72.77.161.25'
p2510
I51803
I46550
tp2511
I4
s(S'158.25.59.20'
p2512
S'68.95.245.34'
p2513
I35918
I46230
tp2514
I7
s(S'120.20.97.92'
p2515
S'46.162.227.227'
p2516
I40430
I38264
tp2517
I3
s(S'158.105.38.206'
p2518
S'112.81.139.19'
p2519
I3154
I13735
tp2520
I9
s(S'137.146.152.242'
p2521
S'20.198.230.252'
p2522
I60647
I52566
tp2523
I3
s(S'197.181.214.95'
p2524
S'162.5.106.152'
p2525
I49754
I23141
tp2526
I8
s(S'64.77.36.246'
p2527
S'32.179.252.73'
p2528
I21819
I17338
tp2529
I4
s(S'115.94.115.37'
p2530
S'168.227.10.151'
p2531
I62420
I20373
tp2532
I4
s(S'246.100.70.85'
p2533
S'125.251.73.202'
p2534
I2366
I56877
tp2535
I6
s(S'186.50.217.117'
p2536
S'25.193.136.202'
p2537
I42050
I5088
tp2538
I3
s(S'104.137.122.97'
p2539
S'123.229.16.245'
p2540
I28339
I59489
tp2541
I6
s(S'238.84.245.255'
p2542
S'58.235.204.64'
p2543
I39158
I50487
tp2544
I8
s(S'116.157.181.30'
p2545
S'110.126.161.26'
p2546
I31845
I8041
tp2547
I3
s(S'203.187.110.14'
p2548
S'79.80.35.249'
p2549
I12662
I3349
tp2550
I5
s(S'152.132.56.67'
p2551
S'241.161.193.50'
p2552
I56625
I57190
tp2553
I3
s(S'210.83.246.230'
p2554
S'21.157.155.163'
p2555
I48544
I17851
tp2556
I9
s(S'173.40.101.248'
p2557
S'226.237.23.247'
p2558
I13723
I17004
tp2559
I3
s(S'34.179.92.51'
p2560
S'118.136.229.231'
p2561
I64267
I5915
tp2562
I4
s(S'101.122.138.4'
p2563
S'69.85.124.219'
p2564
I11419
I34063
tp2565
I6
s(S'170.71.90.96'
p2566
S'39.75.67.255'
p2567
I59824
I51887
tp2568
I9
s(S'108.151.121.235'
p2569
S'19.225.71.224'
p2570
I32477
I45121
tp2571
I5
s(S'249.103.72.190'
p2572
S'162.226.159.214'
p2573
I29321
I65038
tp2574
I2
s(S'13.127.78.121'
p2575
S'221.67.220.202'
p2576
I23505
I767
tp2577
I5
s(S'156.143.145.171'
p2578
S'228.79.11.37'
p2579
I7969
I47130
tp2580
I4
s(S'243.51.130.164'
p2581
S'100.15.196.254'
p2582
I17758
I49162
tp2583
I6
s(S'226.98.3.202'
p2584
S'84.161.166.252'
p2585
I32854
I15916
tp2586
I5
s(S'211.65.125.189'
p2587
S'107.74.57.83'
p2588
I22406
I9319
tp2589
I4
s(S'13.4.232.208'
p2590
S'11.171.194.79'
p2591
I61122
I36964
tp2592
I5
s(S'209.9.140.231'
p2593
S'152.127.223.206'
p2594
I22133
I10233
tp2595
I4
s(S'13.31.124.102'
p2596
S'51.49.241.87'
p2597
I52013
I15275
tp2598
I2
s(S'81.183.19.64'
p2599
S'97.210.146.62'
p2600
I49085
I32667
tp2601
I4
s(S'244.117.166.34'
p2602
S'71.201.217.182'
p2603
I63559
I9194
tp2604
I5
s(S'140.190.34.96'
p2605
S'173.94.21.70'
p2606
I26989
I26550
tp2607
I9423
s(S'242.212.222.141'
p2608
S'167.167.108.167'
p2609
I18320
I38718
tp2610
I1
s(S'116.228.124.136'
p2611
S'178.237.47.136'
p2612
I19834
I37221
tp2613
I8
s(S'44.114.233.74'
p2614
S'126.5.225.219'
p2615
I48868
I63976
tp2616
I7
s(S'83.142.81.123'
p2617
S'177.133.217.137'
p2618
I11919
I28228
tp2619
I5
s(S'182.156.202.37'
p2620
S'133.45.22.221'
p2621
I3890
I54667
tp2622
I6
s(S'29.147.169.75'
p2623
S'72.4.185.24'
p2624
I24373
I63002
tp2625
I3
s(S'106.84.0.222'
p2626
S'154.56.52.241'
p2627
I47607
I42740
tp2628
I3
s(S'53.49.101.117'
p2629
S'70.8.129.185'
p2630
I64882
I31913
tp2631
I5
s(S'126.202.23.220'
p2632
S'119.240.49.134'
p2633
I41726
I3543
tp2634
I5
s(S'219.68.203.54'
p2635
S'117.87.204.157'
p2636
I46824
I17571
tp2637
I5
s(S'71.243.6.110'
p2638
S'84.133.149.62'
p2639
I2155
I58598
tp2640
I8
s(S'76.244.221.162'
p2641
S'191.91.231.101'
p2642
I5335
I37077
tp2643
I3
s(S'168.70.27.195'
p2644
S'181.105.46.91'
p2645
I43677
I10366
tp2646
I5
s(S'208.111.124.223'
p2647
S'148.246.218.145'
p2648
I35120
I22666
tp2649
I4
s(S'235.231.204.159'
p2650
S'113.74.231.183'
p2651
I30861
I57704
tp2652
I4
s(S'236.56.49.246'
p2653
S'154.230.114.144'
p2654
I32534
I32547
tp2655
I1
s(S'189.60.52.48'
p2656
S'229.9.175.147'
p2657
I53299
I7454
tp2658
I6
s(S'105.170.98.121'
p2659
S'229.94.124.214'
p2660
I4090
I27216
tp2661
I4
s(S'49.63.196.21'
p2662
S'175.57.169.251'
p2663
I40584
I65216
tp2664
I4
s(S'25.135.207.160'
p2665
S'229.168.153.103'
p2666
I57289
I47742
tp2667
I9
s(S'175.193.0.22'
p2668
S'38.0.7.138'
p2669
I44147
I1614
tp2670
I5
s(S'198.206.132.194'
p2671
S'114.247.92.251'
p2672
I21784
I6475
tp2673
I8
s(S'151.178.18.94'
p2674
S'244.43.5.96'
p2675
I39711
I29151
tp2676
I1
s(S'139.159.90.175'
p2677
S'197.97.68.71'
p2678
I32598
I9266
tp2679
I5
s(S'209.209.122.21'
p2680
S'204.56.131.188'
p2681
I28024
I30537
tp2682
I6
s(S'174.39.118.77'
p2683
S'47.40.3.33'
p2684
I4413
I16328
tp2685
I8
s(S'34.172.78.64'
p2686
S'87.64.179.225'
p2687
I15749
I32515
tp2688
I10
s(S'104.231.18.101'
p2689
S'144.144.162.228'
p2690
I53066
I42301
tp2691
I3
s(S'120.207.70.168'
p2692
S'179.157.92.48'
p2693
I36679
I16717
tp2694
I5
s(S'200.155.38.119'
p2695
S'153.32.87.154'
p2696
I60730
I16641
tp2697
I4
s(S'166.167.152.218'
p2698
S'103.100.91.192'
p2699
I51161
I11472
tp2700
I4
s(S'224.51.47.91'
p2701
S'230.136.114.27'
p2702
I46331
I31033
tp2703
I2
s(S'167.215.221.25'
p2704
S'79.117.36.238'
p2705
I40180
I15709
tp2706
I3
s(S'147.200.71.159'
p2707
S'113.60.211.86'
p2708
I50472
I13121
tp2709
I7
s(S'58.22.175.45'
p2710
S'75.83.113.175'
p2711
I34857
I18654
tp2712
I1
s(S'203.205.87.193'
p2713
S'169.185.131.120'
p2714
I35340
I50421
tp2715
I4
s(S'236.178.48.120'
p2716
S'238.68.151.80'
p2717
I36982
I56787
tp2718
I2
s(S'128.88.121.197'
p2719
S'198.139.170.143'
p2720
I53372
I1750
tp2721
I8
s(S'108.251.44.111'
p2722
S'241.13.78.59'
p2723
I54341
I56056
tp2724
I4
s(S'15.202.67.126'
p2725
S'193.2.0.65'
p2726
I212
I37807
tp2727
I7
s(S'137.76.81.211'
p2728
S'103.238.116.203'
p2729
I25283
I13405
tp2730
I5
s(S'61.240.6.197'
p2731
S'238.111.199.251'
p2732
I13013
I28088
tp2733
I3
s(S'241.51.93.194'
p2734
S'70.55.74.28'
p2735
I40828
I41539
tp2736
I5
s(S'251.24.162.74'
p2737
S'127.46.199.239'
p2738
I24587
I52812
tp2739
I6
s(S'98.93.77.198'
p2740
S'104.51.228.188'
p2741
I63108
I16245
tp2742
I5
s(S'150.94.144.119'
p2743
S'152.137.250.29'
p2744
I23542
I10116
tp2745
I6
s(S'176.197.16.138'
p2746
S'25.4.59.28'
p2747
I35156
I34630
tp2748
I5
s(S'207.2.208.17'
p2749
S'12.56.79.229'
p2750
I28157
I5645
tp2751
I4
s(S'81.251.189.14'
p2752
S'19.128.113.35'
p2753
I16053
I40669
tp2754
I6
s(S'50.139.240.134'
p2755
S'63.19.32.16'
p2756
I60445
I24613
tp2757
I5
s(S'242.38.52.65'
p2758
S'178.184.68.146'
p2759
I23654
I1157
tp2760
I8
s(S'180.79.95.219'
p2761
S'169.156.88.138'
p2762
I46452
I29284
tp2763
I9
s(S'183.13.191.239'
p2764
S'12.109.104.133'
p2765
I10652
I50047
tp2766
I4
s(S'228.123.4.165'
p2767
S'64.130.60.207'
p2768
I9780
I63516
tp2769
I5
s(S'195.89.210.151'
p2770
S'166.92.220.237'
p2771
I46052
I14040
tp2772
I7
s(S'219.89.68.61'
p2773
S'213.170.117.195'
p2774
I46464
I6701
tp2775
I9
s(S'110.190.46.112'
p2776
S'82.219.231.73'
p2777
I35657
I29932
tp2778
I4
s(S'13.205.7.230'
p2779
S'84.215.254.220'
p2780
I23794
I62096
tp2781
I3
s(S'222.34.92.172'
p2782
S'170.113.225.205'
p2783
I12507
I29827
tp2784
I6
s(S'171.251.154.187'
p2785
S'149.92.181.229'
p2786
I53582
I24051
tp2787
I5
s(S'138.201.135.0'
p2788
S'130.176.116.203'
p2789
I58444
I9675
tp2790
I6
s(S'36.200.154.172'
p2791
S'82.65.155.27'
p2792
I54744
I39836
tp2793
I1
s(S'90.184.134.51'
p2794
S'121.9.225.201'
p2795
I49546
I14387
tp2796
I5
s(S'151.208.69.46'
p2797
S'52.199.105.207'
p2798
I16182
I31620
tp2799
I9
s(S'42.4.5.206'
p2800
S'17.134.118.204'
p2801
I8674
I56927
tp2802
I3
s(S'119.121.133.34'
p2803
S'82.102.55.113'
p2804
I33689
I9796
tp2805
I6
s(S'112.201.191.239'
p2806
S'198.189.26.172'
p2807
I2904
I34423
tp2808
I5
s(S'66.220.145.61'
p2809
S'65.1.82.17'
p2810
I60715
I20351
tp2811
I3
s(S'35.11.232.92'
p2812
S'206.43.88.89'
p2813
I7910
I6147
tp2814
I7
s(S'42.97.128.105'
p2815
S'123.43.134.55'
p2816
I40030
I4350
tp2817
I2
s(S'243.209.133.9'
p2818
S'18.201.73.122'
p2819
I32144
I51488
tp2820
I1
s(S'19.31.251.60'
p2821
S'146.24.180.129'
p2822
I63432
I17794
tp2823
I2
s(S'169.150.93.74'
p2824
S'112.77.246.208'
p2825
I38778
I25262
tp2826
I3
s(S'134.108.190.129'
p2827
S'33.91.139.93'
p2828
I19290
I407
tp2829
I4
s(S'185.98.155.200'
p2830
S'185.56.168.13'
p2831
I33850
I62515
tp2832
I5
s(S'51.224.143.173'
p2833
S'59.104.119.129'
p2834
I28934
I54287
tp2835
I1
s(S'206.153.228.123'
p2836
S'164.4.94.229'
p2837
I31905
I8007
tp2838
I7
s(S'165.127.221.73'
p2839
S'205.129.248.226'
p2840
I10200
I34238
tp2841
I3
s(S'55.119.237.108'
p2842
S'191.173.95.79'
p2843
I52055
I28139
tp2844
I5
s(S'95.62.226.13'
p2845
S'224.87.93.210'
p2846
I35080
I55375
tp2847
I3
s(S'126.38.253.221'
p2848
S'155.210.116.52'
p2849
I21055
I43149
tp2850
I4
s(S'240.155.88.38'
p2851
S'164.244.133.59'
p2852
I13269
I61715
tp2853
I7
s(S'209.111.151.8'
p2854
S'229.35.205.126'
p2855
I1756
I15069
tp2856
I8
s(S'38.74.27.47'
p2857
S'212.100.22.232'
p2858
I2345
I48406
tp2859
I3
s(S'44.140.41.244'
p2860
S'34.232.61.106'
p2861
I5519
I52568
tp2862
I3
s(S'231.41.100.11'
p2863
S'157.96.195.36'
p2864
I19797
I45431
tp2865
I2
s(S'150.137.161.183'
p2866
S'33.128.112.22'
p2867
I2835
I260
tp2868
I6
s(S'229.184.234.43'
p2869
S'131.223.213.178'
p2870
I16758
I46412
tp2871
I8
s(S'75.245.207.247'
p2872
S'163.40.176.181'
p2873
I32063
I54237
tp2874
I5
s(S'204.195.107.134'
p2875
S'232.52.253.194'
p2876
I32273
I50688
tp2877
I4
s(S'115.11.101.116'
p2878
S'253.245.128.111'
p2879
I62134
I31433
tp2880
I6
s(S'39.37.17.59'
p2881
S'56.78.87.121'
p2882
I42449
I39172
tp2883
I6
s(S'76.150.234.197'
p2884
S'25.2.161.251'
p2885
I24799
I7014
tp2886
I9
s(S'14.33.172.185'
p2887
S'212.140.95.99'
p2888
I35128
I20987
tp2889
I4
s(S'86.242.209.168'
p2890
S'102.249.248.143'
p2891
I40587
I61111
tp2892
I5
s(S'37.104.218.248'
p2893
S'149.117.244.216'
p2894
I18883
I27180
tp2895
I5
s(S'15.207.87.58'
p2896
S'78.220.50.91'
p2897
I25197
I52492
tp2898
I5
s(S'48.114.254.17'
p2899
S'31.188.139.21'
p2900
I43126
I49959
tp2901
I5
s(S'240.197.151.85'
p2902
S'227.151.112.125'
p2903
I44780
I7598
tp2904
I3
s(S'152.241.218.190'
p2905
S'191.173.84.18'
p2906
I11105
I14459
tp2907
I4
s(S'59.67.155.189'
p2908
S'168.154.99.247'
p2909
I58480
I15570
tp2910
I2
s(S'242.0.139.73'
p2911
S'208.219.217.241'
p2912
I29976
I20041
tp2913
I6
s(S'190.154.47.134'
p2914
S'204.89.154.148'
p2915
I6635
I14301
tp2916
I2
s(S'185.83.233.30'
p2917
S'192.119.226.73'
p2918
I31365
I31928
tp2919
I8
s(S'21.132.163.34'
p2920
S'233.134.166.87'
p2921
I13304
I12488
tp2922
I6
s(S'193.12.142.243'
p2923
S'70.214.118.222'
p2924
I3379
I14985
tp2925
I4
s(S'89.160.36.11'
p2926
S'130.48.96.204'
p2927
I15588
I42877
tp2928
I9
s(S'169.204.162.189'
p2929
S'159.185.164.30'
p2930
I35494
I45221
tp2931
I6
s(S'105.52.33.92'
p2932
S'170.168.209.157'
p2933
I32726
I6208
tp2934
I5
s(S'104.197.233.81'
p2935
S'102.216.252.49'
p2936
I38985
I14766
tp2937
I5
s(S'242.204.191.45'
p2938
S'147.55.232.107'
p2939
I53695
I18386
tp2940
I7
s(S'77.157.75.148'
p2941
S'191.16.143.207'
p2942
I53177
I43740
tp2943
I6
s(S'26.19.206.150'
p2944
S'229.98.80.14'
p2945
I30349
I5056
tp2946
I8
s(S'180.42.166.80'
p2947
S'250.43.2.21'
p2948
I60501
I19444
tp2949
I2
s(S'116.58.58.20'
p2950
S'43.90.219.131'
p2951
I61971
I10634
tp2952
I6
s(S'118.242.216.89'
p2953
S'202.10.137.225'
p2954
I25619
I60557
tp2955
I8
s(S'55.69.157.148'
p2956
S'90.188.144.78'
p2957
I8162
I45588
tp2958
I6
s(S'14.132.48.228'
p2959
S'115.156.124.65'
p2960
I59209
I24626
tp2961
I5
s(S'230.62.122.111'
p2962
S'250.122.223.74'
p2963
I62627
I57445
tp2964
I5
s(S'115.62.30.243'
p2965
S'235.216.140.149'
p2966
I9424
I7080
tp2967
I4
s(S'119.10.198.147'
p2968
S'111.55.38.108'
p2969
I50394
I2110
tp2970
I5
s(S'167.38.151.111'
p2971
S'95.57.146.121'
p2972
I9788
I44306
tp2973
I9
s(S'171.247.177.215'
p2974
S'149.161.230.87'
p2975
I58562
I31259
tp2976
I8
s(S'70.189.1.54'
p2977
S'187.17.3.185'
p2978
I61218
I54049
tp2979
I7
s(S'71.214.183.243'
p2980
S'19.170.176.123'
p2981
I8142
I59269
tp2982
I5
s(S'239.238.65.76'
p2983
S'163.240.0.5'
p2984
I51968
I8241
tp2985
I6
s(S'121.77.160.247'
p2986
S'98.246.16.135'
p2987
I64451
I63347
tp2988
I4
s(S'134.112.104.59'
p2989
S'112.155.176.58'
p2990
I59823
I27588
tp2991
I3
s(S'248.227.180.138'
p2992
S'80.115.130.14'
p2993
I37774
I51841
tp2994
I8
s(S'91.191.211.77'
p2995
S'49.76.62.17'
p2996
I34568
I14566
tp2997
I6
s(S'168.208.123.195'
p2998
S'113.111.62.208'
p2999
I50985
I13682
tp3000
I9
s.